                        00001 COLECO:	EQU 1
                        00002 SG1000:	EQU 0
                        00003 MSX:	EQU 0
                        00004 SGM:	EQU 0
                        00005 CVBASIC_MUSIC_PLAYER:	EQU 1
                        00006 CVBASIC_COMPRESSION:	EQU 1
                        00007 CVBASIC_BANK_SWITCHING:	EQU 1
                        00008 	FORG $1C000
                        00009 	;
                        00010 	; CVBasic prologue (BASIC compiler for Colecovision)
                        00011 	;
                        00012 	; by Oscar Toledo G.
                        00013 	; https://nanochess.org/
                        00014 	;
                        00015 	; Creation date: Feb/27/2024.
                        00016 	; Revision date: Feb/29/2024. Turns off sound. Now it reads the controllers.
                        00017 	;                             Added 16-bit multiply, division, modulo, and abs.
                        00018 	;                             Added random generator. Added sound routines.
                        00019 	; Revision date: Mar/03/2024. Removed fname directive to use gasm80.
                        00020 	; Revision date: Mar/05/2024. Added support for Sega SG1000.
                        00021 	; Revision date: Mar/06/2024. Added ENASCR, DISSCR, and CPYBLK.
                        00022 	; Revision date: Mar/08/2024. Added modes 0, 1 and 2.
                        00023 	; Revision date: Mar/12/2024. Added support for MSX.
                        00024 	; Revision date: Mar/14/2024. Added _sgn16.
                        00025 	; Revision date: Mar/15/2024. Added upper 16k enable for MSX.
                        00026 	; Revision date: Apr/11/2024. Added support for formatting numbers. Added
                        00027 	;                             support for Super Game Module.
                        00028 	; Revision date: Apr/13/2024. Saved bytes in SG-1000 ROMs. Faster LDIRVM.
                        00029 	;                             Shorter mode setting subroutines.
                        00030 	; Revision date: Apr/26/2024. Interruption handler saves current bank.
                        00031 	; Revision date: Apr/27/2024. Music player now supports bank switching.
                        00032 	;
                        00033 
                        00034 VDP:    EQU $98+$26*COLECO+$26*SG1000
                        00035 JOYSEL:	EQU $C0
                        00036 KEYSEL:	EQU $80
                        00037 
                        00038 PSG:    EQU $FF-$80*SG1000
                        00039 JOY1:   EQU $FC-$20*SG1000
                        00040 JOY2:   EQU $FF-$22*SG1000
                        00041 
                        00042 BASE_RAM: EQU $E000-$7000*COLECO-$2000*SG1000+$0C00*SGM
                        00043 
                        00044 STACK:	EQU $F000-$7C00*COLECO-$2C00*SG1000+$0C00*SGM
                        00045 
                        00046     IF COLECO
8000                    00047 	ORG $8000
8000  55AA              00048 	DB $55,$AA
8002  0000              00049 	DW 0
8004  0000              00050 	DW 0
8006  0000              00051 	DW 0
8008  0000              00052 	DW 0
800A  9289              00053 	DW START
800C                    00054 
800C  C30000            00055 	JP 0	; rst $08
800F  C30000            00056 	JP 0	; rst $10
8012  C30000            00057 	JP 0	; rst $18
8015  C30000            00058 	JP 0	; rst $20
8018  C30000            00059 	JP 0	; rst $28
801B  C30000            00060 	JP 0	; rst $30
801E  C30000            00061 	JP 0	; rst $38
8021                    00062 
8021  C3D383            00063 	JP NMI_HANDLER
8024                    00064     ENDIF
8024                    00065     IF SG1000
8024                    00066 	ORG $0000
8024                    00067 	DI
8024                    00068 	IM 1
8024                    00069 	JP START
8024                    00070 	DB $FF,$FF
8024                    00071 	JP 0
8024                    00072 	DB $FF,$FF,$FF,$FF,$FF
8024                    00073 	JP 0
8024                    00074 	DB $FF,$FF,$FF,$FF,$FF
8024                    00075 	JP 0
8024                    00076 	DB $FF,$FF,$FF,$FF,$FF
8024                    00077 	JP 0
8024                    00078 	DB $FF,$FF,$FF,$FF,$FF
8024                    00079 	JP 0
8024                    00080 	DB $FF,$FF,$FF,$FF,$FF
8024                    00081 	JP 0
8024                    00082 	DB $FF,$FF,$FF,$FF,$FF
8024                    00083 	JP NMI_HANDLER	; It should be called int_handler.
8024                    00084     ENDIF
8024                    00085     IF MSX
8024                    00086 	ORG $4000
8024                    00087 	DB "AB"
8024                    00088 	DW START
8024                    00089 	DW $0000
8024                    00090 	DW $0000
8024                    00091 	DW $0000
8024                    00092 	DW $0000
8024                    00093     ENDIF
8024                    00094 
8024                    00095 WRTVDP:
8024  78                00096 	LD A,B
8025  D3BF              00097 	OUT (VDP+1),A
8027  79                00098 	LD A,C
8028  F680              00099 	OR $80
802A  D3BF              00100 	OUT (VDP+1),A
802C  C9                00101 	RET
802D                    00102 
802D                    00103 SETWRT:
802D  7D                00104 	LD A,L
802E  D3BF              00105 	OUT (VDP+1),A
8030  7C                00106 	LD A,H
8031  F640              00107 	OR $40
8033  D3BF              00108 	OUT (VDP+1),A
8035  C9                00109 	RET
8036                    00110 
8036                    00111 SETRD:
8036  7D                00112 	LD A,L
8037  D3BF              00113 	OUT (VDP+1),A
8039  7C                00114 	LD A,H
803A  E63F              00115         AND $3F
803C  D3BF              00116 	OUT (VDP+1),A
803E  C9                00117 	RET
803F                    00118 
803F                    00119 WRTVRM:
803F  F5                00120 	PUSH AF
8040  CD2D80            00121 	CALL SETWRT
8043  F1                00122 	POP AF
8044  D3BE              00123 	OUT (VDP),A
8046  C9                00124 	RET
8047                    00125 
8047                    00126     IF SG1000
8047                    00127 	DB $FF,$FF,$FF,$FF,$FF,$FF,$FF,$FF
8047                    00128 
8047                    00129 	; Located at $0066
8047                    00130 	EI		; NMI handler (pause button)
8047                    00131 	RETN
8047                    00132     ENDIF
8047                    00133 
8047                    00134 RDVRM:
8047  F5                00135         PUSH AF
8048  CD3680            00136         CALL SETRD
804B  F1                00137         POP AF
804C  E3                00138         EX (SP),HL
804D  E3                00139         EX (SP),HL
804E  DBBE              00140         IN A,(VDP)
8050  C9                00141         RET
8051                    00142 
8051                    00143 FILVRM:
8051  F5                00144 	PUSH AF
8052  CD2D80            00145 	CALL SETWRT
8055  F1                00146 .1:	POP AF
8056  D3BE              00147 	OUT (VDP),A
8058  F5                00148 	PUSH AF
8059  0B                00149 	DEC BC
805A  78                00150 	LD A,B
805B  B1                00151 	OR C
805C  C25580            00152 	JP NZ,.1
805F  F1                00153 	POP AF
8060  C9                00154 	RET
8061                    00155 
8061                    00156 LDIRVM:
8061  EB                00157         EX DE,HL
8062  CD2D80            00158         CALL SETWRT
8065  EB                00159         EX DE,HL
8066  0B                00160         DEC BC
8067  0C                00161         INC C
8068  78                00162         LD A,B
8069  41                00163         LD B,C
806A  3C                00164         INC A
806B  0EBE              00165         LD C,VDP
806D                    00166 .1:
806D                    00167     IF SG1000
806D                    00168 	NOP	; SG1000 is faster (reported by SiRioKD)
806D                    00169     ENDIF
806D  EDA3              00170 	OUTI
806F  C26D80            00171         JP NZ,.1
8072  3D                00172         DEC A
8073  C26D80            00173         JP NZ,.1
8076  C9                00174         RET
8077                    00175 
8077                    00176 LDIRVM3:
8077  CD7D80            00177 	CALL .1
807A  CD7D80            00178 	CALL .1
807D  E5                00179 .1:	PUSH HL
807E  D5                00180 	PUSH DE
807F  C5                00181 	PUSH BC
8080  CD6180            00182 	CALL LDIRVM
8083  C1                00183 	POP BC
8084  D1                00184 	POP DE
8085  7A                00185 	LD A,D
8086  C608              00186 	ADD A,8
8088  57                00187 	LD D,A
8089  E1                00188 	POP HL
808A  C9                00189 	RET
808B                    00190 
808B                    00191 DISSCR:
808B  CDC980            00192 	CALL NMI_OFF
808E  0101A2            00193 	LD BC,$A201
8091  CD2480            00194 	CALL WRTVDP
8094  C3D180            00195 	JP NMI_ON
8097                    00196 
8097                    00197 ENASCR:
8097  CDC980            00198 	CALL NMI_OFF
809A  0101E2            00199 	LD BC,$E201
809D  CD2480            00200 	CALL WRTVDP
80A0  C3D180            00201 	JP NMI_ON
80A3                    00202 
80A3                    00203 CPYBLK:
80A3  E1                00204 	POP HL
80A4  08                00205 	EX AF,AF'

80A5  F1                00206 	POP AF
80A6  47                00207 	LD B,A
80A7  F1                00208 	POP AF
80A8  4F                00209 	LD C,A
80A9  D1                00210 	POP DE
80AA  E3                00211 	EX (SP),HL
80AB  CDC980            00212 	CALL NMI_OFF
80AE  C5                00213 .1:	PUSH BC
80AF  E5                00214 	PUSH HL
80B0  D5                00215 	PUSH DE
80B1  0600              00216 	LD B,0
80B3  CD6180            00217 	CALL LDIRVM
80B6  E1                00218 	POP HL
80B7  012000            00219 	LD BC,$0020
80BA  09                00220 	ADD HL,BC
80BB  EB                00221 	EX DE,HL
80BC  E1                00222 	POP HL
80BD  08                00223 	EX AF,AF'

80BE  4F                00224 	LD C,A
80BF  0600              00225 	LD B,0
80C1  09                00226 	ADD HL,BC
80C2  08                00227 	EX AF,AF'

80C3  C1                00228 	POP BC
80C4  10E8              00229 	DJNZ .1
80C6  C3D180            00230 	JP NMI_ON
80C9                    00231 	
80C9                    00232 NMI_OFF:
80C9                    00233     IF COLECO
80C9  E5                00234 	PUSH HL
80CA  218C70            00235 	LD HL,MODE
80CD  CBC6              00236 	SET 0,(HL)
80CF  E1                00237 	POP HL
80D0                    00238     ENDIF
80D0                    00239     IF SG1000+MSX
80D0                    00240         DI
80D0                    00241     ENDIF
80D0  C9                00242 	RET
80D1                    00243 
80D1                    00244 NMI_ON:
80D1                    00245     IF COLECO
80D1  F5                00246 	PUSH AF
80D2  E5                00247 	PUSH HL
80D3  218C70            00248 	LD HL,MODE
80D6  CB86              00249 	RES 0,(HL)
80D8  00                00250 	NOP
80D9  CB4E              00251 	BIT 1,(HL)
80DB  C2E283            00252 	JP NZ,NMI_HANDLER.0
80DE  E1                00253 	POP HL
80DF  F1                00254 	POP AF
80E0                    00255     ENDIF
80E0                    00256     IF SG1000+MSX
80E0                    00257         EI
80E0                    00258     ENDIF
80E0  C9                00259 	RET
80E1                    00260 
80E1                    00261     IF COLECO
80E1                    00262 KEYPAD_TABLE:
80E1  0F0804050C070A02  00263         DB $0F,$08,$04,$05,$0C,$07,$0A,$02
80E9  0D0B00090301060F  00264         DB $0D,$0B,$00,$09,$03,$01,$06,$0F
80F1                    00265     ENDIF
80F1                    00266 
80F1                    00267 CLS:
80F1  210018            00268 	LD HL,$1800
80F4  228870            00269 	LD (CURSOR),HL
80F7  010003            00270 	LD BC,$0300
80FA  3E20              00271 	LD A,$20
80FC  CDC980            00272 	CALL NMI_OFF
80FF  CD5180            00273 	CALL FILVRM
8102  C3D180            00274 	JP NMI_ON
8105                    00275 
8105                    00276 PRINT_STRING:
8105  4F                00277 	LD C,A
8106  0600              00278 	LD B,0
8108  ED5B8870          00279 	LD DE,(CURSOR)
810C  7A                00280 	LD A,D
810D  E603              00281 	AND $03
810F  F618              00282 	OR $18
8111  57                00283 	LD D,A
8112  D5                00284 	PUSH DE
8113  C5                00285 	PUSH BC
8114  CDC980            00286 	CALL NMI_OFF
8117  CD6180            00287 	CALL LDIRVM
811A  CDD180            00288 	CALL NMI_ON
811D  C1                00289 	POP BC
811E  E1                00290 	POP HL
811F  09                00291 	ADD HL,BC
8120  228870            00292 	LD (CURSOR),HL
8123  C9                00293 	RET
8124                    00294 
8124                    00295 PRINT_NUMBER:
8124  0600              00296 	LD B,0
8126  CDC980            00297 	CALL NMI_OFF
8129                    00298 PRINT_NUMBER5:
8129  111027            00299 	LD DE,10000
812C  CD4B81            00300 	CALL PRINT_DIGIT
812F                    00301 PRINT_NUMBER4:
812F  11E803            00302 	LD DE,1000
8132  CD4B81            00303 	CALL PRINT_DIGIT
8135                    00304 PRINT_NUMBER3:
8135  116400            00305 	LD DE,100
8138  CD4B81            00306 	CALL PRINT_DIGIT
813B                    00307 PRINT_NUMBER2:
813B  110A00            00308 	LD DE,10
813E  CD4B81            00309 	CALL PRINT_DIGIT
8141                    00310 PRINT_NUMBER1:
8141  110100            00311 	LD DE,1
8144  43                00312 	LD B,E
8145  CD4B81            00313 	CALL PRINT_DIGIT
8148  C3D180            00314 	JP NMI_ON
814B                    00315 
814B                    00316 PRINT_DIGIT:
814B  3E2F              00317 	LD A,$2F
814D  B7                00318 	OR A
814E  3C                00319 .2:	INC A
814F  ED52              00320 	SBC HL,DE
8151  D24E81            00321 	JP NC,.2
8154  19                00322 	ADD HL,DE
8155  FE30              00323 	CP $30
8157  200B              00324 	JR NZ,.3
8159  78                00325 	LD A,B
815A  B7                00326 	OR A
815B  C8                00327 	RET Z
815C  3D                00328 	DEC A
815D  2803              00329 	JR Z,.4
815F  79                00330 	LD A,C
8160  1804              00331 	JR .5	
8162                    00332 .4:
8162  3E30              00333 	LD A,$30
8164  0601              00334 .3:	LD B,1
8166  E5                00335 .5:	PUSH HL
8167  2A8870            00336 	LD HL,(CURSOR)
816A  08                00337 	EX AF,AF'

816B  7C                00338 	LD A,H
816C  E603              00339 	AND $03
816E  F618              00340 	OR $18
8170  67                00341 	LD H,A
8171  08                00342 	EX AF,AF'

8172  CD3F80            00343 	CALL WRTVRM
8175  23                00344 	INC HL
8176  228870            00345 	LD (CURSOR),HL
8179  E1                00346 	POP HL
817A  C9                00347 	RET
817B                    00348 
817B                    00349 DEFINE_SPRITE:
817B  EB                00350 	EX DE,HL
817C  6F                00351 	LD L,A
817D  2600              00352 	LD H,0
817F  29                00353 	ADD HL,HL	; x2
8180  29                00354 	ADD HL,HL	; x4
8181  29                00355 	ADD HL,HL	; x8
8182  29                00356 	ADD HL,HL	; x16
8183  29                00357 	ADD HL,HL	; x32
8184  4D                00358 	LD C,L
8185  44                00359 	LD B,H
8186  F1                00360 	POP AF
8187  E1                00361 	POP HL
8188  F5                00362 	PUSH AF
8189  29                00363 	ADD HL,HL	; x2
818A  29                00364 	ADD HL,HL	; x4
818B  2607              00365 	LD H,$07
818D  29                00366 	ADD HL,HL	; x8
818E  29                00367 	ADD HL,HL	; x16
818F  29                00368 	ADD HL,HL	; x32
8190  EB                00369 	EX DE,HL
8191  CDC980            00370 	CALL NMI_OFF
8194  CD6180            00371 	CALL LDIRVM
8197  C3D180            00372 	JP NMI_ON
819A                    00373 	
819A                    00374 DEFINE_CHAR:
819A  EB                00375 	EX DE,HL
819B  6F                00376 	LD L,A
819C  2600              00377 	LD H,0
819E  29                00378 	ADD HL,HL	; x2
819F  29                00379 	ADD HL,HL	; x4
81A0  29                00380 	ADD HL,HL	; x8
81A1  4D                00381 	LD C,L
81A2  44                00382 	LD B,H
81A3  F1                00383 	POP AF
81A4  E1                00384 	POP HL
81A5  F5                00385 	PUSH AF
81A6  29                00386 	ADD HL,HL	; x2
81A7  29                00387 	ADD HL,HL	; x4
81A8  29                00388 	ADD HL,HL	; x8
81A9  EB                00389 	EX DE,HL
81AA  CDC980            00390 	CALL NMI_OFF
81AD  3A8C70            00391 	LD A,(MODE)
81B0  E604              00392 	AND 4
81B2  2006              00393 	JR NZ,.1
81B4  CD7780            00394 	CALL LDIRVM3
81B7  C3D180            00395 	JP NMI_ON
81BA                    00396 	
81BA  CD6180            00397 .1:	CALL LDIRVM
81BD  C3D180            00398 	JP NMI_ON
81C0                    00399 
81C0                    00400 DEFINE_COLOR:
81C0  EB                00401 	EX DE,HL
81C1  6F                00402 	LD L,A
81C2  2600              00403 	LD H,0
81C4  29                00404 	ADD HL,HL	; x2
81C5  29                00405 	ADD HL,HL	; x4
81C6  29                00406 	ADD HL,HL	; x8
81C7  4D                00407 	LD C,L
81C8  44                00408 	LD B,H
81C9  F1                00409 	POP AF
81CA  E1                00410 	POP HL
81CB  F5                00411 	PUSH AF
81CC  29                00412 	ADD HL,HL	; x2
81CD  29                00413 	ADD HL,HL	; x4
81CE  29                00414 	ADD HL,HL	; x8
81CF  EB                00415 	EX DE,HL
81D0  CBEA              00416 	SET 5,D
81D2  CDC980            00417 	CALL NMI_OFF
81D5  CD7780            00418 	CALL LDIRVM3
81D8  C3D180            00419 	JP NMI_ON
81DB                    00420 	
81DB                    00421 UPDATE_SPRITE:
81DB  C1                00422 	POP BC
81DC  328370            00423 	LD (SPRITE_DATA+3),A
81DF  F1                00424 	POP AF
81E0  328270            00425 	LD (SPRITE_DATA+2),A
81E3  F1                00426 	POP AF
81E4  328170            00427 	LD (SPRITE_DATA+1),A
81E7  F1                00428 	POP AF
81E8  328070            00429 	LD (SPRITE_DATA),A
81EB  F1                00430 	POP AF
81EC  C5                00431 	PUSH BC
81ED  110070            00432 	LD DE,SPRITES
81F0  87                00433 	ADD A,A
81F1  87                00434 	ADD A,A
81F2  5F                00435 	LD E,A
81F3  218070            00436 	LD HL,SPRITE_DATA
81F6  010400            00437 	LD BC,4
81F9  EDB0              00438 	LDIR
81FB  C9                00439 	RET
81FC                    00440 
81FC                    00441 	; Fast 16-bit multiplication.
81FC                    00442 _MUL16:
81FC  44                00443 	LD B,H
81FD  4D                00444 	LD C,L
81FE  3E10              00445 	LD A,16
8200  210000            00446 	LD HL,0
8203                    00447 .1:
8203  CB3A              00448 	SRL D
8205  CB1B              00449 	RR E
8207  3001              00450 	JR NC,.2
8209  09                00451 	ADD HL,BC
820A  CB21              00452 .2:	SLA C
820C  CB10              00453 	RL B
820E  3D                00454 	DEC A
820F  C20382            00455 	JP NZ,.1
8212  C9                00456 	RET
8213                    00457 
8213                    00458 	; Fast 16-bit division.
8213                    00459 _DIV16:
8213  44                00460 	LD B,H
8214  4D                00461 	LD C,L
8215  210000            00462 	LD HL,0
8218  3E10              00463 	LD A,16
821A                    00464 .1:
821A  CB11              00465 	RL C
821C  CB10              00466 	RL B
821E  ED6A              00467 	ADC HL,HL
8220  ED52              00468 	SBC HL,DE
8222  D22682            00469 	JP NC,.2	
8225  19                00470 	ADD HL,DE
8226                    00471 .2:
8226  3F                00472 	CCF
8227  3D                00473 	DEC A
8228  C21A82            00474 	JP NZ,.1
822B  CB11              00475 	RL C
822D  CB10              00476 	RL B
822F  60                00477 	LD H,B
8230  69                00478 	LD L,C
8231  C9                00479 	RET
8232                    00480 
8232                    00481 	; Fast 16-bit modulo.
8232                    00482 _MOD16:
8232  44                00483 	LD B,H
8233  4D                00484 	LD C,L
8234  210000            00485 	LD HL,0
8237  3E10              00486 	LD A,16
8239                    00487 .1:
8239  CB11              00488 	RL C
823B  CB10              00489 	RL B
823D  ED6A              00490 	ADC HL,HL
823F  ED52              00491 	SBC HL,DE
8241  D24582            00492 	JP NC,.2	
8244  19                00493 	ADD HL,DE
8245                    00494 .2:
8245  3F                00495 	CCF
8246  3D                00496 	DEC A
8247  C23982            00497 	JP NZ,.1
824A  C9                00498 	RET
824B                    00499 
824B                    00500 _ABS16:
824B  CB7C              00501 	BIT 7,H
824D  C8                00502 	RET Z
824E  7C                00503 	LD A,H
824F  2F                00504 	CPL
8250  67                00505 	LD H,A
8251  7D                00506 	LD A,L
8252  2F                00507 	CPL
8253  6F                00508 	LD L,A
8254  23                00509 	INC HL
8255  C9                00510 	RET
8256                    00511 
8256                    00512 _SGN16:
8256  7C                00513 	LD A,H
8257  B5                00514 	OR L
8258  C8                00515 	RET Z
8259  CB7C              00516 	BIT 7,H
825B  21FFFF            00517 	LD HL,$FFFF
825E  C0                00518 	RET NZ
825F  23                00519 	INC HL
8260  23                00520 	INC HL
8261  C9                00521 	RET
8262                    00522 
8262                    00523 	; Random number generator.
8262                    00524 	; From my game Mecha Eight.
8262                    00525 RANDOM:
8262  2A8A70            00526         LD HL,(LFSR)
8265  7C                00527         LD A,H
8266  B5                00528         OR L
8267  2003              00529         JR NZ,.0
8269  211178            00530         LD HL,$7811
826C  7C                00531 .0:     LD A,H
826D  E680              00532         AND $80
826F  47                00533         LD B,A
8270  7C                00534         LD A,H
8271  E602              00535         AND $02
8273  0F                00536         RRCA
8274  0F                00537         RRCA
8275  A8                00538         XOR B
8276  47                00539         LD B,A
8277  7C                00540         LD A,H
8278  E601              00541         AND $01
827A  0F                00542         RRCA
827B  A8                00543         XOR B
827C  47                00544         LD B,A
827D  7D                00545         LD A,L
827E  E620              00546         AND $20
8280  07                00547         RLCA
8281  07                00548         RLCA
8282  A8                00549         XOR B
8283  07                00550         RLCA
8284  CB1C              00551         RR H
8286  CB1D              00552         RR L
8288  228A70            00553         LD (LFSR),HL
828B  C9                00554         RET
828C                    00555 
828C                    00556 SN76489_FREQ:
828C                    00557     IF COLECO+SG1000
828C  47                00558 	LD B,A
828D  7D                00559 	LD A,L
828E  E60F              00560 	AND $0F
8290  B0                00561 	OR B
8291  D3FF              00562 	OUT (PSG),A
8293  29                00563 	ADD HL,HL
8294  29                00564 	ADD HL,HL
8295  29                00565 	ADD HL,HL
8296  29                00566 	ADD HL,HL
8297  7C                00567 	LD A,H
8298  E63F              00568 	AND $3F
829A  D3FF              00569 	OUT (PSG),A
829C                    00570     ENDIF
829C  C9                00571 	RET
829D                    00572 
829D                    00573 SN76489_VOL:
829D                    00574     IF COLECO+SG1000
829D  2F                00575 	CPL
829E  E60F              00576 	AND $0F
82A0  B0                00577 	OR B
82A1  D3FF              00578 	OUT (PSG),A
82A3                    00579     ENDIF
82A3  C9                00580 	RET
82A4                    00581 
82A4                    00582 SN76489_CONTROL:
82A4                    00583     IF COLECO+SG1000
82A4  E60F              00584 	AND $0F
82A6  F6E0              00585 	OR $E0
82A8  D3FF              00586 	OUT (PSG),A
82AA                    00587     ENDIF
82AA  C9                00588 	RET
82AB                    00589 
82AB                    00590 AY3_REG:
82AB                    00591     IF COLECO
82AB  F5                00592 	PUSH AF
82AC  78                00593 	LD A,B
82AD  D350              00594 	OUT ($50),A
82AF  F1                00595 	POP AF
82B0  D351              00596 	OUT ($51),A
82B2  C9                00597 	RET
82B3                    00598     ENDIF
82B3                    00599     IF SG1000
82B3                    00600         RET
82B3                    00601     ENDIF
82B3                    00602     IF MSX
82B3                    00603 	LD E,A
82B3                    00604 	LD A,B
82B3                    00605 	JP WRTPSG
82B3                    00606     ENDIF
82B3                    00607 
82B3                    00608 AY3_FREQ:
82B3                    00609     IF COLECO
82B3  D350              00610 	OUT ($50),A
82B5  F5                00611 	PUSH AF
82B6  7D                00612 	LD A,L
82B7  D351              00613 	OUT ($51),A
82B9  F1                00614 	POP AF
82BA  3C                00615 	INC A
82BB  D350              00616 	OUT ($50),A
82BD  F5                00617 	PUSH AF
82BE  7C                00618 	LD A,H
82BF  E60F              00619 	AND $0F
82C1  D351              00620 	OUT ($51),A
82C3  F1                00621 	POP AF
82C4  C9                00622 	RET
82C5                    00623     ENDIF
82C5                    00624     IF SG1000
82C5                    00625 	RET
82C5                    00626     ENDIF
82C5                    00627     IF MSX
82C5                    00628 	LD E,L
82C5                    00629 	CALL WRTPSG
82C5                    00630 	LD E,H
82C5                    00631 	INC A
82C5                    00632 	JP WRTPSG
82C5                    00633     ENDIF
82C5                    00634 
82C5                    00635     IF SG1000
82C5                    00636 	; Required for SG1000 as it doesn't have a BIOS
82C5                    00637 	;
82C5                    00638         ; My personal font for TMS9928.
82C5                    00639         ;
82C5                    00640         ; Patterned after the TMS9928 programming manual 6x8 letters
82C5                    00641         ; with better lowercase letters, also I made a proper
82C5                    00642         ; AT sign.
82C5                    00643         ;
82C5                    00644 FONT_BITMAPS:
82C5                    00645         DB $00,$00,$00,$00,$00,$00,$00,$00      ; $20 space
82C5                    00646         DB $20,$20,$20,$20,$20,$00,$20,$00      ; $21 !
82C5                    00647         DB $50,$50,$50,$00,$00,$00,$00,$00      ; $22 "
82C5                    00648         DB $50,$50,$F8,$50,$F8,$50,$50,$00      ; $23 #
82C5                    00649         DB $20,$78,$A0,$70,$28,$F0,$20,$00      ; $24 $
82C5                    00650         DB $C0,$C8,$10,$20,$40,$98,$18,$00      ; $25 %
82C5                    00651         DB $40,$A0,$40,$A0,$A8,$90,$68,$00      ; $26 &
82C5                    00652         DB $60,$20,$40,$00,$00,$00,$00,$00      ; $27 '
82C5                    00653         DB $10,$20,$40,$40,$40,$20,$10,$00      ; $28 (
82C5                    00654         DB $40,$20,$10,$10,$10,$20,$40,$00      ; $29 )
82C5                    00655         DB $00,$A8,$70,$20,$70,$A8,$00,$00      ; $2a *
82C5                    00656         DB $00,$20,$20,$F8,$20,$20,$00,$00      ; $2b +
82C5                    00657         DB $00,$00,$00,$00,$00,$60,$20,$40      ; $2c ,
82C5                    00658         DB $00,$00,$00,$FC,$00,$00,$00,$00      ; $2d -
82C5                    00659         DB $00,$00,$00,$00,$00,$00,$60,$00      ; $2e .
82C5                    00660         DB $00,$08,$10,$20,$40,$80,$00,$00      ; $2f /
82C5                    00661         DB $70,$88,$98,$A8,$C8,$88,$70,$00      ; $30 0
82C5                    00662         DB $20,$60,$20,$20,$20,$20,$F8,$00      ; $31 1
82C5                    00663         DB $70,$88,$08,$10,$60,$80,$F8,$00      ; $32 2
82C5                    00664         DB $70,$88,$08,$30,$08,$88,$70,$00      ; $33 3
82C5                    00665         DB $30,$50,$90,$90,$F8,$10,$10,$00      ; $34 4
82C5                    00666         DB $F8,$80,$F0,$08,$08,$08,$F0,$00      ; $35 5
82C5                    00667         DB $30,$40,$80,$F0,$88,$88,$70,$00      ; $36 6
82C5                    00668         DB $F8,$08,$10,$20,$20,$20,$20,$00      ; $37 7
82C5                    00669         DB $70,$88,$88,$70,$88,$88,$70,$00      ; $38 8
82C5                    00670         DB $70,$88,$88,$78,$08,$10,$60,$00      ; $39 9
82C5                    00671         DB $00,$00,$00,$60,$00,$60,$00,$00      ; $3a :
82C5                    00672         DB $00,$00,$00,$60,$00,$60,$20,$40      ; $3b ;
82C5                    00673         DB $10,$20,$40,$80,$40,$20,$10,$00      ; $3c <
82C5                    00674         DB $00,$00,$F8,$00,$F8,$00,$00,$00      ; $3d =
82C5                    00675         DB $08,$04,$02,$01,$02,$04,$08,$00      ; $3e >
82C5                    00676         DB $70,$88,$08,$10,$20,$00,$20,$00      ; $3f ?
82C5                    00677         DB $70,$88,$98,$A8,$98,$80,$70,$00      ; $40 @
82C5                    00678         DB $20,$50,$88,$88,$F8,$88,$88,$00      ; $41 A
82C5                    00679         DB $F0,$88,$88,$F0,$88,$88,$F0,$00      ; $42 B
82C5                    00680         DB $70,$88,$80,$80,$80,$88,$70,$00      ; $43 C
82C5                    00681         DB $F0,$88,$88,$88,$88,$88,$F0,$00      ; $44 D
82C5                    00682         DB $F8,$80,$80,$F0,$80,$80,$F8,$00      ; $45 E
82C5                    00683         DB $F8,$80,$80,$F0,$80,$80,$80,$00      ; $46 F
82C5                    00684         DB $70,$88,$80,$B8,$88,$88,$70,$00      ; $47 G
82C5                    00685         DB $88,$88,$88,$F8,$88,$88,$88,$00      ; $48 H
82C5                    00686         DB $70,$20,$20,$20,$20,$20,$70,$00      ; $49 I
82C5                    00687         DB $08,$08,$08,$08,$88,$88,$70,$00      ; $4A J
82C5                    00688         DB $88,$90,$A0,$C0,$A0,$90,$88,$00      ; $4B K
82C5                    00689         DB $80,$80,$80,$80,$80,$80,$F8,$00      ; $4C L
82C5                    00690         DB $88,$D8,$A8,$A8,$88,$88,$88,$00      ; $4D M
82C5                    00691         DB $88,$C8,$C8,$A8,$98,$98,$88,$00      ; $4E N
82C5                    00692         DB $70,$88,$88,$88,$88,$88,$70,$00      ; $4F O
82C5                    00693         DB $F0,$88,$88,$F0,$80,$80,$80,$00      ; $50 P
82C5                    00694         DB $70,$88,$88,$88,$88,$A8,$90,$68      ; $51 Q
82C5                    00695         DB $F0,$88,$88,$F0,$A0,$90,$88,$00      ; $52 R
82C5                    00696         DB $70,$88,$80,$70,$08,$88,$70,$00      ; $53 S
82C5                    00697         DB $F8,$20,$20,$20,$20,$20,$20,$00      ; $54 T
82C5                    00698         DB $88,$88,$88,$88,$88,$88,$70,$00      ; $55 U
82C5                    00699         DB $88,$88,$88,$88,$50,$50,$20,$00      ; $56 V
82C5                    00700         DB $88,$88,$88,$A8,$A8,$D8,$88,$00      ; $57 W
82C5                    00701         DB $88,$88,$50,$20,$50,$88,$88,$00      ; $58 X
82C5                    00702         DB $88,$88,$88,$70,$20,$20,$20,$00      ; $59 Y
82C5                    00703         DB $F8,$08,$10,$20,$40,$80,$F8,$00      ; $5A Z
82C5                    00704         DB $78,$60,$60,$60,$60,$60,$78,$00      ; $5B [
82C5                    00705         DB $00,$80,$40,$20,$10,$08,$00,$00      ; $5C \
82C5                    00706         DB $F0,$30,$30,$30,$30,$30,$F0,$00      ; $5D ]
82C5                    00707         DB $20,$50,$88,$00,$00,$00,$00,$00      ; $5E 
82C5                    00708         DB $00,$00,$00,$00,$00,$00,$F8,$00      ; $5F _
82C5                    00709         DB $40,$20,$10,$00,$00,$00,$00,$00      ; $60 
82C5                    00710         DB $00,$00,$68,$98,$88,$98,$68,$00      ; $61 a
82C5                    00711         DB $80,$80,$F0,$88,$88,$88,$F0,$00      ; $62 b
82C5                    00712         DB $00,$00,$78,$80,$80,$80,$78,$00      ; $63 c
82C5                    00713         DB $08,$08,$68,$98,$88,$98,$68,$00      ; $64 d
82C5                    00714         DB $00,$00,$70,$88,$F8,$80,$70,$00      ; $65 e
82C5                    00715         DB $30,$48,$40,$E0,$40,$40,$40,$00      ; $66 f
82C5                    00716         DB $00,$00,$78,$88,$88,$78,$08,$70      ; $67 g
82C5                    00717         DB $80,$80,$F0,$88,$88,$88,$88,$00      ; $68 h
82C5                    00718         DB $20,$00,$60,$20,$20,$20,$70,$00      ; $69 i
82C5                    00719         DB $08,$00,$18,$08,$88,$88,$70,$00      ; $6a j
82C5                    00720         DB $80,$80,$88,$90,$E0,$90,$88,$00      ; $6b k
82C5                    00721         DB $60,$20,$20,$20,$20,$20,$70,$00      ; $6c l
82C5                    00722         DB $00,$00,$D0,$A8,$A8,$A8,$A8,$00      ; $6d m
82C5                    00723         DB $00,$00,$B0,$C8,$88,$88,$88,$00      ; $6e n
82C5                    00724         DB $00,$00,$70,$88,$88,$88,$70,$00      ; $6f o
82C5                    00725         DB $00,$00,$F0,$88,$88,$88,$F0,$80      ; $70 p
82C5                    00726         DB $00,$00,$78,$88,$88,$88,$78,$08      ; $71 q
82C5                    00727         DB $00,$00,$B8,$C0,$80,$80,$80,$00      ; $72 r
82C5                    00728         DB $00,$00,$78,$80,$70,$08,$F0,$00      ; $73 s
82C5                    00729         DB $20,$20,$F8,$20,$20,$20,$20,$00      ; $74 t
82C5                    00730         DB $00,$00,$88,$88,$88,$98,$68,$00      ; $75 u
82C5                    00731         DB $00,$00,$88,$88,$88,$50,$20,$00      ; $76 v
82C5                    00732         DB $00,$00,$88,$A8,$A8,$A8,$50,$00      ; $77 w
82C5                    00733         DB $00,$00,$88,$50,$20,$50,$88,$00      ; $78 x
82C5                    00734         DB $00,$00,$88,$88,$98,$68,$08,$70      ; $79 y
82C5                    00735         DB $00,$00,$F8,$10,$20,$40,$F8,$00      ; $7a z
82C5                    00736         DB $18,$20,$20,$40,$20,$20,$18,$00      ; $7b {
82C5                    00737         DB $20,$20,$20,$20,$20,$20,$20,$00      ; $7c |
82C5                    00738         DB $C0,$20,$20,$10,$20,$20,$C0,$00      ; $7d } 
82C5                    00739         DB $00,$00,$40,$A8,$10,$00,$00,$00      ; $7e
82C5                    00740         DB $70,$70,$20,$F8,$20,$70,$50,$00      ; $7f
82C5                    00741     ENDIF
82C5                    00742 
82C5                    00743 VDP_GENERIC_MODE:
82C5  CDC980            00744 	CALL NMI_OFF
82C8  CD2480            00745 	CALL WRTVDP
82CB  0101A2            00746 	LD BC,$A201
82CE  CD2480            00747 	CALL WRTVDP
82D1  010206            00748 	LD BC,$0602	; $1800 for pattern table.
82D4  CD2480            00749 	CALL WRTVDP
82D7  42                00750 	LD B,D
82D8  0E03              00751 	LD C,$03	; for color table.
82DA  CD2480            00752 	CALL WRTVDP
82DD  43                00753 	LD B,E
82DE  0E04              00754 	LD C,$04	; for bitmap table.
82E0  CD2480            00755 	CALL WRTVDP
82E3  010536            00756 	LD BC,$3605	; $1b00 for sprite attribute table.
82E6  CD2480            00757 	CALL WRTVDP
82E9  010607            00758 	LD BC,$0706	; $3800 for sprites bitmaps.
82EC  CD2480            00759 	CALL WRTVDP
82EF  010701            00760 	LD BC,$0107
82F2  C32480            00761 	JP WRTVDP
82F5                    00762 
82F5                    00763 MODE_0:
82F5  218C70            00764 	LD HL,MODE
82F8  CB96              00765 	RES 2,(HL)
82FA  010002            00766 	LD BC,$0200
82FD  1103FF            00767 	LD DE,$FF03	; $2000 for color table, $0000 for bitmaps.
8300  CDC582            00768 	CALL VDP_GENERIC_MODE
8303                    00769     IF COLECO
8303  2A6C00            00770 	LD HL,($006C)
8306  1180FF            00771 	LD DE,-128
8309  19                00772 	ADD HL,DE
830A                    00773     ENDIF
830A                    00774     IF SG1000
830A                    00775 	LD HL,FONT_BITMAPS
830A                    00776     ENDIF
830A                    00777     IF MSX
830A                    00778 	LD HL,($0004)   
830A                    00779 	INC H
830A                    00780     ENDIF
830A  110001            00781 	LD DE,$0100
830D  010003            00782 	LD BC,$0300
8310  CD7780            00783 	CALL LDIRVM3
8313  CDD180            00784 	CALL NMI_ON
8316  CDC980            00785 	CALL NMI_OFF
8319  210020            00786 	LD HL,$2000
831C  010018            00787 	LD BC,$1800
831F  3EF0              00788 	LD A,$F0
8321  CD5180            00789 	CALL FILVRM
8324  CDD180            00790 	CALL NMI_ON
8327  CDF180            00791 	CALL CLS
832A                    00792 VDP_GENERIC_SPRITES:
832A  CDC980            00793 	CALL NMI_OFF
832D  21001B            00794 	LD HL,$1B00
8330  018000            00795 	LD BC,$0080
8333  3ED1              00796 	LD A,$D1
8335  CD5180            00797 	CALL FILVRM
8338  210070            00798 	LD HL,SPRITES
833B  110170            00799 	LD DE,SPRITES+1
833E  017F00            00800 	LD BC,127
8341  36D1              00801 	LD (HL),$D1
8343  EDB0              00802 	LDIR
8345  CDD180            00803 	CALL NMI_ON
8348  CDC980            00804 	CALL NMI_OFF
834B  0101E2            00805 	LD BC,$E201	; Enable screen and interrupts.
834E  CD2480            00806 	CALL WRTVDP
8351  C3D180            00807 	JP NMI_ON
8354                    00808 
8354                    00809 MODE_1:
8354  218C70            00810 	LD HL,MODE
8357  CB96              00811 	RES 2,(HL)
8359  010002            00812 	LD BC,$0200
835C  1103FF            00813 	LD DE,$FF03	; $2000 for color table, $0000 for bitmaps.
835F  CDC582            00814 	CALL VDP_GENERIC_MODE
8362  210000            00815 	LD HL,$0000
8365  010018            00816 	LD BC,$1800
8368  AF                00817 	XOR A
8369  CD5180            00818 	CALL FILVRM
836C  CDD180            00819 	CALL NMI_ON
836F  CDC980            00820 	CALL NMI_OFF
8372  210020            00821 	LD HL,$2000
8375  010018            00822 	LD BC,$1800
8378  3EF0              00823 	LD A,$F0
837A  CD5180            00824 	CALL FILVRM
837D  CDD180            00825 	CALL NMI_ON
8380  210018            00826 	LD HL,$1800
8383  CDC980            00827 .1:	CALL NMI_OFF
8386  0620              00828 	LD B,32
8388  7D                00829 .2:	LD A,L
8389  CD3F80            00830 	CALL WRTVRM
838C  23                00831 	INC HL
838D  10F9              00832 	DJNZ .2
838F  CDD180            00833 	CALL NMI_ON
8392  7C                00834 	LD A,H
8393  FE1B              00835 	CP $1B
8395  C28383            00836 	JP NZ,.1
8398  C32A83            00837 	JP VDP_GENERIC_SPRITES
839B                    00838 
839B                    00839 MODE_2:
839B  218C70            00840 	LD HL,MODE
839E  CBD6              00841 	SET 2,(HL)
83A0  010000            00842 	LD BC,$0000
83A3  110080            00843 	LD DE,$8000	; $2000 for color table, $0000 for bitmaps.
83A6  CDC582            00844 	CALL VDP_GENERIC_MODE
83A9                    00845     IF COLECO
83A9  2A6C00            00846 	LD HL,($006C)
83AC  1180FF            00847 	LD DE,-128
83AF  19                00848 	ADD HL,DE
83B0                    00849     ENDIF
83B0                    00850     IF SG1000
83B0                    00851 	LD HL,FONT_BITMAPS
83B0                    00852     ENDIF
83B0                    00853     IF MSX
83B0                    00854 	LD HL,($0004)   
83B0                    00855 	INC H
83B0                    00856     ENDIF
83B0  110001            00857 	LD DE,$0100
83B3  010003            00858 	LD BC,$0300
83B6  CD6180            00859 	CALL LDIRVM
83B9  CDD180            00860 	CALL NMI_ON
83BC  CDC980            00861 	CALL NMI_OFF
83BF  210020            00862 	LD HL,$2000
83C2  012000            00863 	LD BC,$0020
83C5  3EF0              00864 	LD A,$F0
83C7  CD5180            00865 	CALL FILVRM
83CA  CDD180            00866 	CALL NMI_ON
83CD  CDF180            00867 	CALL CLS
83D0  C32A83            00868 	JP VDP_GENERIC_SPRITES
83D3                    00869 
83D3                    00870     IF MSX
83D3                    00871 ENASLT: EQU $0024       ; Select slot (H=Addr, A=Slot)
83D3                    00872 RSLREG: EQU $0138       ; Read slot status in A
83D3                    00873 
83D3                    00874         ;
83D3                    00875         ; Get slot mapping
83D3                    00876         ; B = 16K bank (0 for $0000, 1 for $4000, 2 for $8000, 3 for $c000)
83D3                    00877         ; A = Current slot selection status (CALL RSLREG)
83D3                    00878         ;
83D3                    00879 GET_SLOT_MAPPING:
83D3                    00880         CALL ROTATE_SLOT
83D3                    00881         LD C,A
83D3                    00882         ADD A,$C1       ; EXPTBL
83D3                    00883         LD L,A
83D3                    00884         LD H,$FC
83D3                    00885         LD A,(HL)
83D3                    00886         AND $80         ; Get expanded flag
83D3                    00887         OR C
83D3                    00888         LD C,A
83D3                    00889         INC HL
83D3                    00890         INC HL
83D3                    00891         INC HL
83D3                    00892         INC HL
83D3                    00893         LD A,(HL)       ; SLTTBL
83D3                    00894         CALL ROTATE_SLOT
83D3                    00895         RLCA
83D3                    00896         RLCA
83D3                    00897         OR C            ; A contains bit 7 = Marks expanded
83D3                    00898                         ;            bit 6 - 4 = Doesn't care
83D3                    00899                         ;            bit 3 - 2 = Secondary mapper
83D3                    00900                         ;            bit 1 - 0 = Primary mapper
83D3                    00901         RET
83D3                    00902 
83D3                    00903 ROTATE_SLOT:
83D3                    00904         PUSH BC
83D3                    00905         DEC B
83D3                    00906         INC B
83D3                    00907         JR Z,.1
83D3                    00908 .0:     RRCA
83D3                    00909         RRCA
83D3                    00910         DJNZ .0
83D3                    00911 .1:     AND 3
83D3                    00912         POP BC
83D3                    00913         RET
83D3                    00914 
83D3                    00915     ENDIF
83D3                    00916 
83D3                    00917 NMI_HANDLER:
83D3  F5                00918 	PUSH AF
83D4  E5                00919 	PUSH HL
83D5  218C70            00920 	LD HL,MODE
83D8  CB46              00921 	BIT 0,(HL)
83DA  2808              00922 	JR Z,.1
83DC  CBCE              00923 	SET 1,(HL)
83DE  E1                00924 	POP HL
83DF  F1                00925 	POP AF
83E0  ED45              00926 	RETN
83E2                    00927 
83E2  CB8E              00928 .0:	RES 1,(HL)
83E4                    00929 
83E4  C5                00930 .1:	PUSH BC
83E5  D5                00931 	PUSH DE
83E6                    00932   IF CVBASIC_BANK_SWITCHING
83E6                    00933     IF COLECO
83E6  3ABFFF            00934 	LD A,($FFBF)
83E9                    00935     ENDIF
83E9                    00936     IF SG1000
83E9                    00937 	LD A,($7FFF)
83E9                    00938     ENDIF
83E9                    00939     IF MSX
83E9                    00940 	LD A,($BFFF)
83E9                    00941     ENDIF
83E9  F5                00942 	PUSH AF
83EA                    00943   ENDIF
83EA                    00944     IF SG1000+MSX
83EA                    00945 	IN A,(VDP+1)
83EA                    00946     ENDIF
83EA  01BE80            00947 	LD BC,$8000+VDP
83ED  CB56              00948 	BIT 2,(HL)
83EF  2810              00949 	JR Z,.4
83F1                    00950 
83F1  21001B            00951 	LD HL,$1B00
83F4  CD2D80            00952 	CALL SETWRT
83F7  210070            00953 	LD HL,SPRITES
83FA  EDA3              00954 	OUTI
83FC  C2FA83            00955 	JP NZ,$-2
83FF  1830              00956 	JR .5
8401                    00957 
8401                    00958 .4:
8401  21001B            00959 	LD HL,$1B00
8404  CD2D80            00960 	CALL SETWRT
8407  3A8D70            00961 	LD A,(FLICKER)
840A  C604              00962 	ADD A,$04
840C  328D70            00963 	LD (FLICKER),A
840F  6F                00964 	LD L,A
8410  2670              00965 	LD H,SPRITES>>8
8412  111800            00966 	LD DE,24
8415  0680              00967 	LD B,128
8417                    00968 .6:
8417  CBBD              00969 	RES 7,L
8419  EDA3              00970 	OUTI
841B  C31E84            00971 	JP $+3
841E  EDA3              00972 	OUTI
8420  C32384            00973 	JP $+3
8423  EDA3              00974 	OUTI
8425  C32884            00975 	JP $+3
8428  EDA3              00976 	OUTI
842A  C32D84            00977 	JP $+3
842D  19                00978 	ADD HL,DE
842E  C21784            00979 	JP NZ,.6
8431                    00980 .5:
8431                    00981 
8431                    00982     IF COLECO
8431  D3C0              00983 	OUT (JOYSEL),A
8433  E3                00984 	EX (SP),HL
8434  E3                00985 	EX (SP),HL
8435  DBFC              00986 	IN A,(JOY1)
8437  F6B0              00987 	OR $B0
8439  47                00988 	LD B,A
843A  DBFF              00989 	IN A,(JOY2)
843C  F6B0              00990 	OR $B0
843E  4F                00991 	LD C,A
843F                    00992 
843F  D380              00993 	OUT (KEYSEL),A
8441  E3                00994 	EX (SP),HL
8442  E3                00995 	EX (SP),HL
8443  DBFC              00996 	IN A,(JOY1)
8445  57                00997 	LD D,A
8446  DBFF              00998 	IN A,(JOY2)
8448  5F                00999 	LD E,A
8449                    01000 
8449  7A                01001 	LD A,D
844A  07                01002 	RLCA
844B  F67F              01003 	OR $7F
844D  A0                01004 	AND B
844E  2F                01005 	CPL
844F  328E70            01006 	LD (JOY1_DATA),A
8452                    01007 
8452  7B                01008 	LD A,E
8453  07                01009 	RLCA
8454  F67F              01010 	OR $7F
8456  A1                01011 	AND C
8457  2F                01012 	CPL
8458  328F70            01013 	LD (JOY2_DATA),A
845B                    01014 
845B  7A                01015 	LD A,D
845C  E60F              01016 	AND $0F
845E  4F                01017 	LD C,A
845F  0600              01018 	LD B,0
8461  21E180            01019 	LD HL,KEYPAD_TABLE
8464  09                01020 	ADD HL,BC
8465  7E                01021 	LD A,(HL)
8466  329070            01022 	LD (KEY1_DATA),A
8469                    01023 
8469  7B                01024 	LD A,E
846A  E60F              01025 	AND $0F
846C  4F                01026 	LD C,A
846D  21E180            01027 	LD HL,KEYPAD_TABLE
8470  09                01028 	ADD HL,BC
8471  7E                01029 	LD A,(HL)
8472  329170            01030 	LD (KEY2_DATA),A
8475                    01031     ENDIF
8475                    01032     IF SG1000
8475                    01033         LD B,$FF
8475                    01034         IN A,(JOY1)
8475                    01035         BIT 0,A
8475                    01036         JR NZ,$+4
8475                    01037         RES 0,B
8475                    01038         BIT 1,A
8475                    01039         JR NZ,$+4
8475                    01040         RES 2,B
8475                    01041         BIT 2,A
8475                    01042         JR NZ,$+4
8475                    01043         RES 3,B
8475                    01044         BIT 3,A
8475                    01045         JR NZ,$+4
8475                    01046         RES 1,B
8475                    01047         BIT 4,A
8475                    01048         JR NZ,$+4
8475                    01049         RES 6,B
8475                    01050         BIT 5,A
8475                    01051         JR NZ,$+4
8475                    01052         RES 7,B
8475                    01053 	PUSH AF
8475                    01054 	LD A,B
8475                    01055 	CPL
8475                    01056 	LD (JOY1_DATA),A
8475                    01057 	POP AF
8475                    01058 
8475                    01059 	LD B,$FF
8475                    01060         BIT 6,A
8475                    01061         JR NZ,$+4
8475                    01062         RES 0,B
8475                    01063         BIT 7,A
8475                    01064         JR NZ,$+4
8475                    01065         RES 2,B
8475                    01066 
8475                    01067         IN A,(JOY2)
8475                    01068         BIT 0,A
8475                    01069         JR NZ,$+4
8475                    01070         RES 3,B
8475                    01071         BIT 1,A
8475                    01072         JR NZ,$+4
8475                    01073         RES 1,B
8475                    01074         BIT 2,A
8475                    01075         JR NZ,$+4
8475                    01076         RES 4,B
8475                    01077         BIT 3,A
8475                    01078         JR NZ,$+4
8475                    01079         RES 5,B
8475                    01080 	PUSH AF
8475                    01081 	LD A,B
8475                    01082 	CPL
8475                    01083 	LD (JOY2_DATA),A
8475                    01084 	POP AF
8475                    01085 
8475                    01086     ENDIF
8475                    01087     IF MSX
8475                    01088 
8475                    01089 	LD A,15
8475                    01090 	CALL RDPSG
8475                    01091 	AND $B0
8475                    01092 	OR $4F
8475                    01093 	LD E,A
8475                    01094 	LD A,15
8475                    01095 	CALL WRTPSG
8475                    01096 	LD A,14
8475                    01097 	CALL RDPSG
8475                    01098 	LD B,$FF
8475                    01099 	BIT 0,A
8475                    01100 	JR NZ,$+4
8475                    01101 	RES 0,B
8475                    01102 	BIT 3,A
8475                    01103 	JR NZ,$+4
8475                    01104 	RES 1,B
8475                    01105 	BIT 1,A
8475                    01106 	JR NZ,$+4
8475                    01107 	RES 2,B
8475                    01108 	BIT 2,A
8475                    01109 	JR NZ,$+4
8475                    01110 	RES 3,B
8475                    01111 	BIT 4,A
8475                    01112 	JR NZ,$+4
8475                    01113 	RES 6,B
8475                    01114 	BIT 5,A
8475                    01115 	JR NZ,$+4
8475                    01116 	RES 7,B
8475                    01117 	LD A,B
8475                    01118 	CPL
8475                    01119 	LD (JOY2_DATA),A
8475                    01120 
8475                    01121         LD B,$FF
8475                    01122 	IN A,($AA)
8475                    01123 	AND $F0
8475                    01124 	OR $08
8475                    01125 	OUT ($AA),A
8475                    01126 	IN A,($A9)
8475                    01127 	BIT 5,A
8475                    01128 	JR NZ,$+4
8475                    01129         RES 0,B
8475                    01130 	BIT 7,A
8475                    01131 	JR NZ,$+4
8475                    01132         RES 1,B
8475                    01133         BIT 6,A
8475                    01134         JR NZ,$+4
8475                    01135         RES 2,B
8475                    01136         BIT 4,A
8475                    01137         JR NZ,$+4
8475                    01138         RES 3,B
8475                    01139 	BIT 0,A
8475                    01140 	JR NZ,$+4
8475                    01141 	RES 6,B
8475                    01142 	IN A,($AA)
8475                    01143 	AND $F0
8475                    01144 	OR $04
8475                    01145 	OUT ($AA),A
8475                    01146 	IN A,($A9)
8475                    01147 	BIT 2,A
8475                    01148 	JR NZ,$+4
8475                    01149 	RES 7,B
8475                    01150 
8475                    01151 	LD A,15
8475                    01152 	CALL RDPSG
8475                    01153 	AND $B0
8475                    01154 	OR $0F
8475                    01155 	LD E,A
8475                    01156 	LD A,15
8475                    01157 	CALL WRTPSG
8475                    01158 	LD A,14
8475                    01159 	CALL RDPSG
8475                    01160 	BIT 0,A
8475                    01161 	JR NZ,$+4
8475                    01162 	RES 0,B
8475                    01163 	BIT 3,A
8475                    01164 	JR NZ,$+4
8475                    01165 	RES 1,B
8475                    01166 	BIT 1,A
8475                    01167 	JR NZ,$+4
8475                    01168 	RES 2,B
8475                    01169 	BIT 2,A
8475                    01170 	JR NZ,$+4
8475                    01171 	RES 3,B
8475                    01172 	BIT 4,A
8475                    01173 	JR NZ,$+4
8475                    01174 	RES 6,B
8475                    01175 	BIT 5,A
8475                    01176 	JR NZ,$+4
8475                    01177 	RES 7,B
8475                    01178 
8475                    01179 	LD A,B
8475                    01180 	CPL
8475                    01181 	LD (JOY1_DATA),A
8475                    01182     ENDIF
8475                    01183 
8475                    01184     IF CVBASIC_MUSIC_PLAYER
8475  3A9470            01185 	LD A,(MUSIC_MODE)
8478  B7                01186 	OR A
8479  C43287            01187 	CALL NZ,MUSIC_HARDWARE
847C                    01188     ENDIF
847C                    01189 
847C  2A8470            01190 	LD HL,(FRAME)
847F  23                01191 	INC HL
8480  228470            01192 	LD (FRAME),HL
8483                    01193 
8483  218A70            01194 	LD HL,LFSR	; Make LFSR more random
8486  34                01195 	INC (HL)
8487  34                01196 	INC (HL)
8488  34                01197 	INC (HL)
8489                    01198 
8489                    01199     IF CVBASIC_MUSIC_PLAYER
8489                    01200 	;
8489                    01201 	; Music is played with a 50hz clock.
8489                    01202 	;
8489  3A9270            01203 	LD A,(NTSC)
848C  B7                01204 	OR A
848D  280E              01205 	JR Z,.2
848F  3A9370            01206 	LD A,(MUSIC_TICK)
8492  3C                01207 	INC A
8493  FE06              01208 	CP 6
8495  2001              01209 	JR NZ,$+3
8497  AF                01210 	XOR A
8498  329370            01211 	LD (MUSIC_TICK),A
849B  2807              01212 	JR Z,.3
849D                    01213 .2:
849D  3A9470            01214 	LD A,(MUSIC_MODE)
84A0  B7                01215 	OR A
84A1  C4F684            01216 	CALL NZ,MUSIC_GENERATE
84A4                    01217 .3:
84A4                    01218     ENDIF
84A4                    01219 
84A4                    01220   IF CVBASIC_BANK_SWITCHING
84A4  F1                01221 	POP AF
84A5                    01222     IF COLECO
84A5  6F                01223 	LD L,A
84A6  26FF              01224 	LD H,$FF
84A8  7E                01225 	LD A,(HL)
84A9                    01226     ENDIF
84A9                    01227     IF SG1000
84A9                    01228 	LD ($FFFE),A
84A9                    01229     ENDIF
84A9                    01230     IF MSX
84A9                    01231 	LD ($7000),A
84A9                    01232     ENDIF
84A9                    01233   ENDIF
84A9  D1                01234 	POP DE
84AA  C1                01235 	POP BC
84AB  E1                01236 	POP HL
84AC                    01237     IF COLECO
84AC  DBBF              01238 	IN A,(VDP+1)
84AE  F1                01239 	POP AF
84AF  ED45              01240 	RETN
84B1                    01241     ENDIF
84B1                    01242     IF SG1000
84B1                    01243 	POP AF
84B1                    01244         EI
84B1                    01245         RETI
84B1                    01246     ENDIF
84B1                    01247     IF MSX
84B1                    01248 	POP AF
84B1                    01249         RET
84B1                    01250     ENDIF
84B1                    01251 
84B1                    01252 	;
84B1                    01253 	; The music player code comes from my
84B1                    01254 	; game Princess Quest for Colecovision (2012)
84B1                    01255 	;
84B1                    01256 
84B1                    01257         ;
84B1                    01258         ; Init music player.
84B1                    01259         ;
84B1                    01260 MUSIC_INIT:
84B1                    01261     IF COLECO+SG1000
84B1  3E9F              01262         LD A,$9F
84B3  D3FF              01263         OUT (PSG),A
84B5  3EBF              01264         LD A,$BF
84B7  D3FF              01265         OUT (PSG),A
84B9  3EDF              01266         LD A,$DF
84BB  D3FF              01267         OUT (PSG),A
84BD  3EFF              01268         LD A,$FF
84BF  D3FF              01269         OUT (PSG),A
84C1  3EEC              01270         LD A,$EC
84C3  D3FF              01271         OUT (PSG),A
84C5                    01272     ENDIF
84C5                    01273     IF MSX
84C5                    01274 WRTPSG:	EQU $0093
84C5                    01275 RDPSG:	EQU $0096
84C5                    01276 
84C5                    01277 	LD A,$08
84C5                    01278 	LD E,$00
84C5                    01279 	CALL WRTPSG
84C5                    01280 	LD A,$09
84C5                    01281 	LD E,$00
84C5                    01282 	CALL WRTPSG
84C5                    01283 	LD A,$0A
84C5                    01284 	LD E,$00
84C5                    01285 	CALL WRTPSG
84C5                    01286 	LD A,$07
84C5                    01287 	LD E,$B8
84C5                    01288 	CALL WRTPSG
84C5                    01289     ENDIF
84C5                    01290     IF SGM
84C5                    01291 	LD B,$08
84C5                    01292 	XOR A
84C5                    01293 	CALL AY3_REG
84C5                    01294 	LD B,$09
84C5                    01295 	CALL AY3_REG
84C5                    01296 	LD B,$0A
84C5                    01297 	CALL AY3_REG
84C5                    01298 	LD B,$07
84C5                    01299 	LD A,$B8
84C5                    01300 	CALL AY3_REG
84C5                    01301     ENDIF
84C5                    01302     IF CVBASIC_MUSIC_PLAYER
84C5                    01303     ELSE
84C5                    01304 	RET
84C5                    01305     ENDIF
84C5                    01306 
84C5                    01307     IF CVBASIC_MUSIC_PLAYER
84C5  3EFF              01308         LD A,$FF
84C7  32B470            01309         LD (AUDIO_VOL4HW),A
84CA  3EEC              01310         LD A,$EC
84CC  32B370            01311         LD (AUDIO_CONTROL),A
84CF  3EB8              01312         LD A,$B8
84D1  32AF70            01313         LD (AUDIO_MIX),A
84D4  219388            01314 	LD HL,MUSIC_SILENCE
84D7                    01315         ;
84D7                    01316 	; Play a music.
84D7                    01317 	; HL = Pointer to music.
84D7                    01318         ;
84D7                    01319 MUSIC_PLAY:
84D7  CDC980            01320         CALL NMI_OFF
84DA  7E                01321         LD A,(HL)          
84DB  329B70            01322         LD (MUSIC_TIMING),A
84DE  23                01323         INC HL
84DF  229670            01324         LD (MUSIC_START),HL
84E2  229870            01325         LD (MUSIC_POINTER),HL
84E5  AF                01326         XOR A
84E6  329C70            01327         LD (MUSIC_NOTE_COUNTER),A
84E9  3C                01328 	INC A
84EA  329A70            01329 	LD (MUSIC_PLAYING),A
84ED                    01330   IF CVBASIC_BANK_SWITCHING
84ED                    01331     IF COLECO
84ED  3ABFFF            01332 	LD A,($FFBF)
84F0                    01333     ENDIF
84F0                    01334     IF SG1000
84F0                    01335         LD A,($7FFF)
84F0                    01336     ENDIF
84F0                    01337     IF MSX
84F0                    01338         LD A,($BFFF)
84F0                    01339     ENDIF
84F0  329570            01340         LD (MUSIC_BANK),A
84F3                    01341   ENDIF
84F3  C3D180            01342         JP NMI_ON
84F6                    01343 
84F6                    01344         ;
84F6                    01345         ; Generates music.
84F6                    01346         ;
84F6                    01347 MUSIC_GENERATE:
84F6  3AAF70            01348         LD A,(AUDIO_MIX)
84F9  E6C0              01349         AND $C0                 
84FB  F638              01350         OR $38
84FD  32AF70            01351         LD (AUDIO_MIX),A
8500  AF                01352         XOR A                ; Turn off all the sound channels.
8501  6F                01353         LD L,A
8502  67                01354         LD H,A
8503  22B070            01355         LD (AUDIO_VOL1),HL   ; audio_vol1/audio_vol2
8506  32B270            01356         LD (AUDIO_VOL3),A
8509  3EFF              01357 	LD A,$FF
850B  32B470            01358 	LD (AUDIO_VOL4HW),A
850E                    01359 
850E  3A9C70            01360         LD A,(MUSIC_NOTE_COUNTER)
8511  B7                01361         OR A
8512  C2AC85            01362         JP NZ,.6
8515  2A9870            01363         LD HL,(MUSIC_POINTER)
8518  E5                01364 .15:    PUSH HL
8519                    01365   IF CVBASIC_BANK_SWITCHING
8519  3A9570            01366 	LD A,(MUSIC_BANK)
851C                    01367     IF COLECO
851C  5F                01368 	LD E,A
851D  16FF              01369 	LD D,$FF
851F  1A                01370 	LD A,(DE)
8520                    01371     ENDIF
8520                    01372     IF SG1000
8520                    01373         LD ($FFFE),A
8520                    01374     ENDIF
8520                    01375     IF MSX
8520                    01376 	LD ($7000),A
8520                    01377     ENDIF
8520                    01378   ENDIF
8520  46                01379         LD B,(HL)
8521  23                01380         INC HL
8522  4E                01381         LD C,(HL)
8523  23                01382         INC HL
8524  56                01383         LD D,(HL)
8525  23                01384         INC HL
8526  5E                01385         LD E,(HL)
8527  E1                01386         POP HL
8528  3A9B70            01387         LD A,(MUSIC_TIMING)
852B  07                01388         RLCA
852C  3005              01389         JR NC,.16
852E  5A                01390         LD E,D
852F  1600              01391         LD D,0
8531  1805              01392         JR .17
8533                    01393 
8533  07                01394 .16:    RLCA
8534  3002              01395         JR NC,.17
8536  1E00              01396         LD E,0
8538  78                01397 .17:    LD A,B		; Read first byte.
8539  FEFE              01398         CP -2           ; End of music?
853B  2005              01399         JR NZ,.19       ; No, jump.
853D  AF                01400         XOR A		; Keep at same place.
853E  329A70            01401         LD (MUSIC_PLAYING),A
8541  C9                01402         RET
8542                    01403 
8542  FEFD              01404 .19:    CP -3           ; Repeat music?
8544  C24C85            01405         JP NZ,.0
8547  2A9670            01406         LD HL,(MUSIC_START)
854A  18CC              01407         JR .15
854C                    01408 
854C  3A9B70            01409 .0:     LD A,(MUSIC_TIMING)
854F  E63F              01410         AND $3F         ; Restart note time.
8551  329C70            01411         LD (MUSIC_NOTE_COUNTER),A
8554  78                01412         LD A,B
8555  FE3F              01413         CP $3F          ; Sustain?
8557  2811              01414         JR Z,.1
8559  07                01415         RLCA
855A  07                01416         RLCA
855B  E603              01417         AND 3
855D  329D70            01418         LD (MUSIC_INSTRUMENT_1),A    
8560  78                01419         LD A,B
8561  E63F              01420         AND $3F
8563  329F70            01421         LD (MUSIC_NOTE_1),A    
8566  AF                01422         XOR A         
8567  329E70            01423         LD (MUSIC_COUNTER_1),A    
856A  79                01424 .1:     LD A,C          
856B  FE3F              01425         CP $3F          
856D  2811              01426         JR Z,.2
856F  07                01427         RLCA
8570  07                01428         RLCA
8571  E603              01429         AND 3
8573  32A070            01430         LD (MUSIC_INSTRUMENT_2),A    
8576  79                01431         LD A,C
8577  E63F              01432         AND $3F
8579  32A270            01433         LD (MUSIC_NOTE_2),A    
857C  AF                01434         XOR A         
857D  32A170            01435         LD (MUSIC_COUNTER_2),A    
8580  7A                01436 .2:     LD A,D          
8581  FE3F              01437         CP $3F          
8583  2811              01438         JR Z,.3
8585  07                01439         RLCA
8586  07                01440         RLCA
8587  E603              01441         AND 3
8589  32A370            01442         LD (MUSIC_INSTRUMENT_3),A    
858C  7A                01443         LD A,D
858D  E63F              01444         AND $3F
858F  32A570            01445         LD (MUSIC_NOTE_3),A    
8592  AF                01446         XOR A         
8593  32A470            01447         LD (MUSIC_COUNTER_3),A    
8596  7B                01448 .3:     LD A,E          
8597  32A770            01449         LD (MUSIC_DRUM),A
859A  AF                01450         XOR A
859B  32A670            01451         LD (MUSIC_COUNTER_4),A
859E  23                01452         INC HL
859F  23                01453         INC HL
85A0  23                01454         INC HL
85A1  3A9B70            01455         LD A,(MUSIC_TIMING)
85A4  E6C0              01456         AND $C0
85A6  2001              01457         JR NZ,.14
85A8  23                01458         INC HL
85A9  229870            01459 .14:    LD (MUSIC_POINTER),HL
85AC                    01460 
85AC  3A9F70            01461 .6:     LD A,(MUSIC_NOTE_1)    
85AF  B7                01462         OR A            
85B0  280D              01463         JR Z,.7         
85B2  ED4B9D70          01464         LD BC,(MUSIC_INSTRUMENT_1)
85B6  CD6086            01465         CALL MUSIC_NOTE2FREQ
85B9  22A870            01466         LD (AUDIO_FREQ1),HL 
85BC  32B070            01467         LD (AUDIO_VOL1),A
85BF                    01468 
85BF  3AA270            01469 .7:     LD A,(MUSIC_NOTE_2)    
85C2  B7                01470         OR A            
85C3  280D              01471         JR Z,.8         
85C5  ED4BA070          01472         LD BC,(MUSIC_INSTRUMENT_2)
85C9  CD6086            01473         CALL MUSIC_NOTE2FREQ
85CC  22AA70            01474         LD (AUDIO_FREQ2),HL 
85CF  32B170            01475         LD (AUDIO_VOL2),A
85D2                    01476 
85D2  3AA570            01477 .8:     LD A,(MUSIC_NOTE_3)    
85D5  B7                01478         OR A            
85D6  280D              01479         JR Z,.9         
85D8  ED4BA370          01480         LD BC,(MUSIC_INSTRUMENT_3)
85DC  CD6086            01481         CALL MUSIC_NOTE2FREQ
85DF  22AC70            01482         LD (AUDIO_FREQ3),HL 
85E2  32B270            01483         LD (AUDIO_VOL3),A
85E5                    01484 
85E5  3AA770            01485 .9:     LD A,(MUSIC_DRUM)    
85E8  B7                01486         OR A            
85E9  2842              01487         JR Z,.4         
85EB  3D                01488         DEC A           ; 1 - Long drum.
85EC  2012              01489         JR NZ,.5
85EE  3AA670            01490         LD A,(MUSIC_COUNTER_4)
85F1  FE03              01491         CP 3
85F3  D22D86            01492         JP NC,.4
85F6  3E05              01493 .10:    LD A,5
85F8  32AE70            01494         LD (AUDIO_NOISE),A
85FB  CDFD87            01495         CALL ENABLE_DRUM
85FE  182D              01496         JR .4
8600                    01497 
8600  3D                01498 .5:     DEC A           ; 2 - Short durm.
8601  2011              01499         JR NZ,.11
8603  3AA670            01500         LD A,(MUSIC_COUNTER_4)
8606  B7                01501         OR A
8607  C22D86            01502         JP NZ,.4
860A  3E08              01503         LD A,8
860C  32AE70            01504         LD (AUDIO_NOISE),A
860F  CDFD87            01505         CALL ENABLE_DRUM
8612  1819              01506         JR .4
8614                    01507 
8614                    01508 .11:    ;dec a           ; 3 - Roll.
8614                    01509         ;jp nz,.4
8614  3A9B70            01510         LD A,(MUSIC_TIMING)
8617  E63E              01511         AND $3E
8619  0F                01512         RRCA
861A  47                01513         LD B,A
861B  3AA670            01514         LD A,(MUSIC_COUNTER_4)
861E  FE02              01515         CP 2
8620  DAF685            01516         JP C,.10
8623  B8                01517         CP B
8624  DA2D86            01518         JP C,.4
8627  3D                01519         DEC A
8628  3D                01520         DEC A
8629  B8                01521         CP B
862A  DAF685            01522         JP C,.10
862D                    01523 .4:
862D  3A9E70            01524         LD A,(MUSIC_COUNTER_1)
8630  3C                01525         INC A
8631  FE18              01526         CP $18
8633  C23886            01527         JP NZ,$+5
8636  D608              01528         SUB $08
8638  329E70            01529         LD (MUSIC_COUNTER_1),A
863B                    01530 
863B  3AA170            01531         LD A,(MUSIC_COUNTER_2)
863E  3C                01532         INC A
863F  FE18              01533         CP $18
8641  C24686            01534         JP NZ,$+5
8644  D608              01535         SUB $08
8646  32A170            01536         LD (MUSIC_COUNTER_2),A
8649                    01537 
8649  3AA470            01538         LD A,(MUSIC_COUNTER_3)
864C  3C                01539         INC A
864D  FE18              01540         CP $18
864F  C25486            01541         JP NZ,$+5
8652  D608              01542         SUB $08
8654  32A470            01543         LD (MUSIC_COUNTER_3),A
8657                    01544 
8657  21A670            01545         LD HL,MUSIC_COUNTER_4
865A  34                01546         INC (HL)
865B  219C70            01547         LD HL,MUSIC_NOTE_COUNTER
865E  35                01548         DEC (HL)
865F  C9                01549         RET
8660                    01550 
8660                    01551         ;
8660                    01552         ; Converts note to frequency.
8660                    01553  	; Input:
8660                    01554 	;   A = Note (1-62).
8660                    01555 	;   B = Instrument counter.
8660                    01556 	;   C = Instrument.
8660                    01557         ; Output:
8660                    01558 	;   HL = Frequency.
8660                    01559 	;   A = Volume.
8660                    01560 	;
8660                    01561 MUSIC_NOTE2FREQ:
8660  87                01562         ADD A,A
8661  5F                01563         LD E,A
8662  1600              01564         LD D,0
8664  210388            01565         LD HL,MUSIC_NOTES_TABLE
8667  19                01566         ADD HL,DE
8668  7E                01567         LD A,(HL)
8669  23                01568         INC HL
866A  66                01569         LD H,(HL)
866B  6F                01570         LD L,A
866C  79                01571         LD A,C
866D  B7                01572         OR A
866E  CA7A86            01573         JP Z,MUSIC_PIANO
8671  3D                01574         DEC A
8672  CA9C86            01575         JP Z,MUSIC_CLARINET
8675  3D                01576         DEC A
8676  CAEB86            01577         JP Z,MUSIC_FLUTE
8679                    01578         ;
8679                    01579         ; Bass instrument.
8679                    01580         ;
8679                    01581 MUSIC_BASS:
8679  29                01582         ADD HL,HL
867A                    01583 
867A                    01584         ;
867A                    01585         ; Piano instrument.
867A                    01586         ;
867A                    01587 MUSIC_PIANO:
867A  78                01588         LD A,B
867B  C684              01589         ADD A,.1&255
867D  4F                01590         LD C,A
867E  CE86              01591         ADC A,.1>>8
8680  91                01592         SUB C
8681  47                01593         LD B,A
8682  0A                01594         LD A,(BC)
8683  C9                01595         RET
8684                    01596 
8684                    01597 .1:
8684  0C0B0B0A0A090908  01598         DB 12,11,11,10,10,9,9,8
868C  0807070606050504  01599         DB 8,7,7,6,6,5,5,4
8694  0404050504040303  01600         DB 4,4,5,5,4,4,3,3
869C                    01601 
869C                    01602         ;
869C                    01603         ; Clarinet instrument.
869C                    01604         ;
869C                    01605 MUSIC_CLARINET:
869C  78                01606         LD A,B
869D  C6BB              01607         ADD A,.1&255
869F  4F                01608         LD C,A
86A0  CE86              01609         ADC A,.1>>8
86A2  91                01610         SUB C
86A3  47                01611         LD B,A
86A4  0A                01612         LD A,(BC)
86A5  5F                01613         LD E,A
86A6  07                01614         RLCA
86A7  9F                01615         SBC A,A
86A8  57                01616         LD D,A
86A9  19                01617         ADD HL,DE
86AA  CB3C              01618         SRL H           
86AC  CB1D              01619         RR L
86AE  D2B286            01620         JP NC,.2
86B1  23                01621         INC HL
86B2  79                01622 .2:     LD A,C
86B3  C618              01623         ADD A,24
86B5  4F                01624         LD C,A
86B6  3001              01625 	JR NC,$+3
86B8  04                01626 	INC B
86B9  0A                01627         LD A,(BC)
86BA  C9                01628         RET
86BB                    01629 
86BB                    01630 .1:
86BB  00000000          01631         DB 0,0,0,0
86BF  FEFCFE00          01632         DB -2,-4,-2,0
86C3  02040200          01633         DB 2,4,2,0
86C7  FEFCFE00          01634         DB -2,-4,-2,0
86CB  02040200          01635         DB 2,4,2,0
86CF  FEFCFE00          01636         DB -2,-4,-2,0
86D3                    01637 
86D3  0D0E0E0D0D0C0C0C  01638         DB 13,14,14,13,13,12,12,12
86DB  0B0B0B0B0C0C0C0C  01639         DB 11,11,11,11,12,12,12,12
86E3  0B0B0B0B0C0C0C0C  01640         DB 11,11,11,11,12,12,12,12
86EB                    01641 
86EB                    01642         ;
86EB                    01643         ; Flute instrument.
86EB                    01644         ;
86EB                    01645 MUSIC_FLUTE:
86EB  78                01646         LD A,B
86EC  C602              01647         ADD A,.1&255
86EE  4F                01648         LD C,A
86EF  CE87              01649         ADC A,.1>>8
86F1  91                01650         SUB C
86F2  47                01651         LD B,A
86F3  0A                01652         LD A,(BC)
86F4  5F                01653         LD E,A
86F5  07                01654         RLCA
86F6  9F                01655         SBC A,A
86F7  57                01656         LD D,A
86F8  19                01657         ADD HL,DE
86F9  79                01658         LD A,C
86FA  C618              01659         ADD A,24
86FC  4F                01660         LD C,A
86FD  3001              01661 	JR NC,$+3
86FF  04                01662 	INC B
8700  0A                01663         LD A,(BC)
8701  C9                01664         RET
8702                    01665 
8702                    01666 .1:
8702  00000000          01667         DB 0,0,0,0
8706  00010201          01668         DB 0,1,2,1
870A  00010201          01669         DB 0,1,2,1
870E  00010201          01670         DB 0,1,2,1
8712  00010201          01671         DB 0,1,2,1
8716  00010201          01672         DB 0,1,2,1
871A                    01673                  
871A  0A0C0D0D0C0C0C0C  01674         DB 10,12,13,13,12,12,12,12
8722  0B0B0B0B0A0A0A0A  01675         DB 11,11,11,11,10,10,10,10
872A  0B0B0B0B0A0A0A0A  01676         DB 11,11,11,11,10,10,10,10
8732                    01677 
8732                    01678         ;
8732                    01679         ; Emit sound.
8732                    01680         ;
8732                    01681 MUSIC_HARDWARE:
8732                    01682     IF COLECO+SG1000
8732  3A9470            01683 	LD A,(MUSIC_MODE)
8735  FE04              01684 	CP 4		; PLAY SIMPLE?
8737  381B              01685 	JR C,.7		; Yes, jump.
8739  3AB170            01686         LD A,(AUDIO_VOL2)
873C  B7                01687         OR A
873D  C25487            01688         JP NZ,.7
8740  3AB270            01689         LD A,(AUDIO_VOL3)
8743  B7                01690         OR A
8744  CA5487            01691         JP Z,.7
8747  32B170            01692         LD (AUDIO_VOL2),A
874A  AF                01693         XOR A
874B  32B270            01694         LD (AUDIO_VOL3),A
874E  2AAC70            01695         LD HL,(AUDIO_FREQ3)
8751  22AA70            01696         LD (AUDIO_FREQ2),HL
8754                    01697 .7:
8754  2AA870            01698         LD HL,(AUDIO_FREQ1)
8757  7C                01699         LD A,H
8758  FE04              01700         CP 4
875A  3E9F              01701         LD A,$9F
875C  D27A87            01702         JP NC,.1
875F  7D                01703         LD A,L
8760  E60F              01704         AND $0F
8762  F680              01705         OR $80
8764  D3FF              01706         OUT (PSG),A
8766  29                01707         ADD HL,HL
8767  29                01708         ADD HL,HL
8768  29                01709         ADD HL,HL
8769  29                01710         ADD HL,HL
876A  7C                01711         LD A,H
876B  D3FF              01712         OUT (PSG),A
876D  3AB070            01713         LD A,(AUDIO_VOL1)
8770  C683              01714         ADD A,AY2SN&255
8772  6F                01715         LD L,A
8773  CE88              01716         ADC A,AY2SN>>8
8775  95                01717         SUB L
8776  67                01718         LD H,A
8777  7E                01719         LD A,(HL)
8778  F690              01720         OR $90
877A  D3FF              01721 .1:     OUT (PSG),A
877C                    01722 
877C  2AAA70            01723         LD HL,(AUDIO_FREQ2)
877F  7C                01724         LD A,H
8780  FE04              01725         CP 4
8782  3EBF              01726         LD A,$BF
8784  D2A287            01727         JP NC,.2
8787  7D                01728         LD A,L
8788  E60F              01729         AND $0F
878A  F6A0              01730         OR $A0
878C  D3FF              01731         OUT (PSG),A
878E  29                01732         ADD HL,HL
878F  29                01733         ADD HL,HL
8790  29                01734         ADD HL,HL
8791  29                01735         ADD HL,HL
8792  7C                01736         LD A,H
8793  D3FF              01737         OUT (PSG),A
8795  3AB170            01738         LD A,(AUDIO_VOL2)
8798  C683              01739         ADD A,AY2SN&255
879A  6F                01740         LD L,A
879B  CE88              01741         ADC A,AY2SN>>8
879D  95                01742         SUB L
879E  67                01743         LD H,A
879F  7E                01744         LD A,(HL)
87A0  F6B0              01745         OR $B0
87A2  D3FF              01746 .2:     OUT (PSG),A
87A4                    01747 
87A4  3A9470            01748 	LD A,(MUSIC_MODE)
87A7  FE04              01749 	CP 4		; PLAY SIMPLE?
87A9  3828              01750 	JR C,.6		; Yes, jump.
87AB                    01751 
87AB  2AAC70            01752         LD HL,(AUDIO_FREQ3)
87AE  7C                01753         LD A,H
87AF  FE04              01754         CP 4
87B1  3EDF              01755         LD A,$DF
87B3  D2D187            01756         JP NC,.3
87B6  7D                01757         LD A,L
87B7  E60F              01758         AND $0F
87B9  F6C0              01759         OR $C0
87BB  D3FF              01760         OUT (PSG),A
87BD  29                01761         ADD HL,HL
87BE  29                01762         ADD HL,HL
87BF  29                01763         ADD HL,HL
87C0  29                01764         ADD HL,HL
87C1  7C                01765         LD A,H
87C2  D3FF              01766         OUT (PSG),A
87C4  3AB270            01767         LD A,(AUDIO_VOL3)
87C7  C683              01768         ADD A,AY2SN&255
87C9  6F                01769         LD L,A
87CA  CE88              01770         ADC A,AY2SN>>8
87CC  95                01771         SUB L
87CD  67                01772         LD H,A
87CE  7E                01773         LD A,(HL)
87CF  F6D0              01774         OR $D0
87D1  D3FF              01775 .3:     OUT (PSG),A
87D3                    01776 
87D3                    01777 .6:
87D3  3A9470            01778 	LD A,(MUSIC_MODE)
87D6  E601              01779 	AND 1		; NO DRUMS?
87D8  C8                01780 	RET Z		; Yes, return.
87D9                    01781 
87D9  3AB470            01782         LD A,(AUDIO_VOL4HW)
87DC  3C                01783         INC A           
87DD  2818              01784         JR Z,.4        
87DF  3AAE70            01785         LD A,(AUDIO_NOISE)
87E2  FE10              01786         CP 16
87E4  06EC              01787         LD B,$EC        
87E6  DAEB87            01788         JP C,.5
87E9  06ED              01789         LD B,$ED        
87EB                    01790 ;       ld b,$ee        
87EB  3AB370            01791 .5:     LD A,(AUDIO_CONTROL)
87EE  B8                01792         CP B
87EF  2806              01793         JR Z,.4
87F1  78                01794         LD A,B
87F2  32B370            01795         LD (AUDIO_CONTROL),A
87F5  D3FF              01796         OUT (PSG),A
87F7  3AB470            01797 .4:     LD A,(AUDIO_VOL4HW)
87FA  D3FF              01798         OUT (PSG),A
87FC  C9                01799         RET
87FD                    01800     ENDIF
87FD                    01801     IF MSX
87FD                    01802 	LD A,(MUSIC_MODE)
87FD                    01803 	CP 4		; PLAY SIMPLE?
87FD                    01804 	JR C,.8		; Yes, jump.	
87FD                    01805 	LD HL,AUDIO_FREQ1
87FD                    01806 	LD BC,$0B00
87FD                    01807 	LD A,C
87FD                    01808 	LD E,(HL)
87FD                    01809 	CALL WRTPSG
87FD                    01810 	INC HL
87FD                    01811 	INC C
87FD                    01812 	DJNZ $-7
87FD                    01813 	RET
87FD                    01814 .8:
87FD                    01815 	LD HL,AUDIO_FREQ1
87FD                    01816 	LD BC,$0400
87FD                    01817 	LD A,C
87FD                    01818 	LD E,(HL)
87FD                    01819 	CALL WRTPSG
87FD                    01820 	INC HL
87FD                    01821 	INC C
87FD                    01822 	DJNZ $-7
87FD                    01823 	INC HL
87FD                    01824 	INC HL
87FD                    01825 	INC C
87FD                    01826 	INC C
87FD                    01827 	LD A,(MUSIC_MODE)
87FD                    01828 	AND 1
87FD                    01829 	JR Z,.9
87FD                    01830 	LD A,C
87FD                    01831 	LD E,(HL)
87FD                    01832 	CALL WRTPSG
87FD                    01833 	INC HL
87FD                    01834 	INC C
87FD                    01835 	LD A,C
87FD                    01836 	LD E,(HL)
87FD                    01837 	CALL WRTPSG
87FD                    01838 	INC HL
87FD                    01839 	INC C
87FD                    01840 	JR .10
87FD                    01841 .9:	INC HL
87FD                    01842 	INC C
87FD                    01843 	INC HL
87FD                    01844 	INC C
87FD                    01845 .10:	LD B,$02
87FD                    01846 	LD A,C
87FD                    01847 	LD E,(HL)
87FD                    01848 	CALL WRTPSG
87FD                    01849 	INC HL
87FD                    01850 	INC C
87FD                    01851 	DJNZ $-7
87FD                    01852 	RET
87FD                    01853     ENDIF
87FD                    01854 
87FD                    01855         ;
87FD                    01856         ; Enable drum.
87FD                    01857         ;
87FD                    01858 ENABLE_DRUM:
87FD                    01859     IF COLECO+SG1000
87FD  3EF5              01860         LD A,$F5
87FF  32B470            01861         LD (AUDIO_VOL4HW),A
8802                    01862     ELSE
8802                    01863         LD HL,AUDIO_MIX
8802                    01864         LD A,(AUDIO_VOL2)
8802                    01865         OR A
8802                    01866         JR NZ,.1
8802                    01867         LD A,10
8802                    01868         LD (AUDIO_VOL2),A
8802                    01869         SET 1,(HL)
8802                    01870 .1:     RES 4,(HL)
8802                    01871     ENDIF
8802  C9                01872         RET
8803                    01873 
8803                    01874         ;
8803                    01875 	; Musical notes table.
8803                    01876 	;
8803                    01877 MUSIC_NOTES_TABLE:
8803                    01878         ; Silence - 0
8803  0000              01879         DW 0
8805                    01880         ; 2nd octave - 1
8805  B9065506FC059A05  01881         DW 1721,1621,1532,1434,1364,1286,1216,1141,1076,1017,956,909
881D                    01882         ; 3rd octave - 13
881D  56032503F902CD02  01883         DW 854,805,761,717,678,639,605,571,538,508,480,453
8835                    01884         ; 4th octave - 25
8835  AB0194017C016801  01885         DW 427,404,380,360,339,321,302,285,270,254,240,226
884D                    01886         ; 5th octave - 37
884D  D600CA00BF00B400  01887         DW 214,202,191,180,170,160,151,143,135,127,120,113
8865                    01888         ; 6th octave - 49
8865  6B0065005F005A00  01889         DW 107,101,95,90,85,80,76,71,67,64,60,57
887D                    01890         ; 7th octave - 61
887D  360033003000      01891 	DW 54,51,48
8883                    01892 
8883                    01893     IF COLECO+SG1000
8883                    01894         ;
8883                    01895         ; Converts AY-3-8910 volume to SN76489
8883                    01896         ;
8883                    01897 AY2SN:
8883  0F0F0F0E0E0E0D0B  01898         DB $0F,$0F,$0F,$0E,$0E,$0E,$0D,$0B,$0A,$08,$07,$05,$04,$03,$01,$00
8893                    01899     ENDIF
8893                    01900 
8893                    01901 MUSIC_SILENCE:
8893  08                01902 	DB 8
8894  00000000          01903 	DB 0,0,0,0
8898  FE                01904 	DB -2
8899                    01905     ENDIF
8899                    01906 
8899                    01907     IF CVBASIC_COMPRESSION
8899                    01908 DEFINE_CHAR_UNPACK:
8899  EB                01909 	EX DE,HL
889A  F1                01910 	POP AF
889B  E1                01911 	POP HL
889C  F5                01912 	PUSH AF
889D  29                01913 	ADD HL,HL	; x2
889E  29                01914 	ADD HL,HL	; x4
889F  29                01915 	ADD HL,HL	; x8
88A0  EB                01916 	EX DE,HL
88A1  3A8C70            01917 	LD A,(MODE)
88A4  E604              01918 	AND 4
88A6  CAB688            01919 	JP Z,UNPACK3
88A9  C3C888            01920 	JP UNPACK
88AC                    01921 
88AC                    01922 DEFINE_COLOR_UNPACK:
88AC  EB                01923 	EX DE,HL
88AD  F1                01924 	POP AF
88AE  E1                01925 	POP HL
88AF  F5                01926 	PUSH AF
88B0  29                01927 	ADD HL,HL	; x2
88B1  29                01928 	ADD HL,HL	; x4
88B2  29                01929 	ADD HL,HL	; x8
88B3  EB                01930 	EX DE,HL
88B4  CBEA              01931 	SET 5,D
88B6                    01932 UNPACK3:
88B6  CDBC88            01933 	CALL .1
88B9  CDBC88            01934 	CALL .1
88BC                    01935 .1:
88BC  D5                01936 	PUSH DE
88BD  E5                01937 	PUSH HL
88BE  CDC888            01938 	CALL UNPACK
88C1  E1                01939 	POP HL
88C2  D1                01940 	POP DE
88C3  7A                01941 	LD A,D
88C4  C608              01942 	ADD A,8	
88C6  57                01943 	LD D,A
88C7  C9                01944 	RET
88C8                    01945 	
88C8                    01946         ;
88C8                    01947         ; Pletter-0.5c decompressor (XL2S Entertainment & Team Bomba)
88C8                    01948         ;
88C8                    01949 UNPACK:
88C8                    01950 ; Initialization
88C8  7E                01951         LD A,(HL)
88C9  23                01952         INC HL
88CA  D9                01953 	EXX
88CB  110000            01954         LD DE,0
88CE  87                01955         ADD A,A
88CF  3C                01956         INC A
88D0  CB13              01957         RL E
88D2  87                01958         ADD A,A
88D3  CB13              01959         RL E
88D5  87                01960         ADD A,A
88D6  CB13              01961         RL E
88D8  CB13              01962         RL E
88DA  218689            01963         LD HL,.MODES
88DD  19                01964         ADD HL,DE
88DE  4E                01965         LD C,(HL)
88DF  23                01966         INC HL
88E0  46                01967         LD B,(HL)
88E1  C5                01968         PUSH BC
88E2  DDE1              01969         POP IX
88E4  1E01              01970         LD E,1
88E6  D9                01971 	EXX
88E7  FD21FB88          01972         LD IY,.LOOP
88EB                    01973 
88EB                    01974 ; Main depack loop
88EB                    01975 .LITERAL:
88EB  08                01976         EX AF,AF'

88EC  CDC980            01977         CALL NMI_OFF
88EF  7E                01978         LD A,(HL)
88F0  EB                01979         EX DE,HL
88F1  CD3F80            01980         CALL WRTVRM
88F4  EB                01981         EX DE,HL
88F5  23                01982         INC HL
88F6  13                01983         INC DE
88F7  CDD180            01984         CALL NMI_ON
88FA  08                01985         EX AF,AF'

88FB  87                01986 .LOOP:   ADD A,A
88FC  CC7C89            01987         CALL Z,.GETBIT
88FF  30EA              01988         JR NC,.LITERAL
8901                    01989 
8901                    01990 ; Compressed data
8901  D9                01991 	EXX
8902  62                01992         LD H,D
8903  6B                01993         LD L,E
8904  87                01994 .GETLEN: ADD A,A
8905  CC8089            01995         CALL Z,.GETBITEXX
8908  301A              01996         JR NC,.LENOK
890A  87                01997 .LUS:    ADD A,A
890B  CC8089            01998         CALL Z,.GETBITEXX
890E  ED6A              01999         ADC HL,HL
8910  D8                02000         RET C   
8911  87                02001         ADD A,A
8912  CC8089            02002         CALL Z,.GETBITEXX
8915  300D              02003         JR NC,.LENOK
8917  87                02004         ADD A,A
8918  CC8089            02005         CALL Z,.GETBITEXX
891B  ED6A              02006         ADC HL,HL
891D  D8                02007         RET C  
891E  87                02008         ADD A,A
891F  CC8089            02009         CALL Z,.GETBITEXX
8922  38E6              02010         JR C,.LUS
8924  23                02011 .LENOK:  INC HL
8925  D9                02012 	EXX
8926  4E                02013         LD C,(HL)
8927  23                02014         INC HL
8928  0600              02015         LD B,0
892A  CB79              02016         BIT 7,C
892C  282A              02017         JR Z,.OFFSOK
892E  DDE9              02018         JP (IX)
8930                    02019 
8930  87                02020 .MODE6:  ADD A,A
8931  CC7C89            02021         CALL Z,.GETBIT
8934  CB10              02022         RL B
8936  87                02023 .MODE5:  ADD A,A
8937  CC7C89            02024         CALL Z,.GETBIT
893A  CB10              02025         RL B
893C  87                02026 .MODE4:  ADD A,A
893D  CC7C89            02027         CALL Z,.GETBIT
8940  CB10              02028         RL B
8942  87                02029 .MODE3:  ADD A,A
8943  CC7C89            02030         CALL Z,.GETBIT
8946  CB10              02031         RL B
8948  87                02032 .MODE2:  ADD A,A
8949  CC7C89            02033         CALL Z,.GETBIT
894C  CB10              02034         RL B
894E  87                02035         ADD A,A
894F  CC7C89            02036         CALL Z,.GETBIT
8952  3004              02037         JR NC,.OFFSOK
8954  B7                02038         OR A
8955  04                02039         INC B
8956  CBB9              02040         RES 7,C
8958  03                02041 .OFFSOK: INC BC
8959  E5                02042         PUSH HL
895A  D9                02043 	EXX
895B  E5                02044         PUSH HL
895C  D9                02045 	EXX
895D  6B                02046         LD L,E
895E  62                02047         LD H,D
895F  ED42              02048         SBC HL,BC
8961  C1                02049         POP BC
8962  08                02050         EX AF,AF'

8963                    02051 .LOOP2: 
8963  CDC980            02052         CALL NMI_OFF
8966  CD4780            02053         CALL RDVRM              ; unpack
8969  EB                02054         EX DE,HL
896A  CD3F80            02055         CALL WRTVRM
896D  EB                02056         EX DE,HL        ; 4
896E  CDD180            02057         CALL NMI_ON
8971  23                02058         INC HL          ; 6
8972  13                02059         INC DE          ; 6
8973  0B                02060         DEC BC          ; 6
8974  78                02061         LD A,B          ; 4
8975  B1                02062         OR C            ; 4
8976  20EB              02063         JR NZ,.LOOP2     ; 10
8978  08                02064         EX AF,AF'

8979  E1                02065         POP HL
897A  FDE9              02066         JP (IY)
897C                    02067 
897C  7E                02068 .GETBIT: LD A,(HL)
897D  23                02069         INC HL
897E  17                02070 	RLA
897F  C9                02071 	RET
8980                    02072 
8980                    02073 .GETBITEXX:
8980  D9                02074 	EXX
8981  7E                02075         LD A,(HL)
8982  23                02076         INC HL
8983  D9                02077 	EXX
8984  17                02078 	RLA
8985  C9                02079 	RET
8986                    02080 
8986                    02081 .MODES:
8986  5889              02082         DW      .OFFSOK
8988  4889              02083         DW      .MODE2
898A  4289              02084         DW      .MODE3
898C  3C89              02085         DW      .MODE4
898E  3689              02086         DW      .MODE5
8990  3089              02087         DW      .MODE6
8992                    02088 
8992                    02089     ENDIF
8992                    02090 
8992                    02091 START:
8992                    02092     IF SG1000
8992                    02093 	LD A,$92	; Setup 8255 for SC3000.
8992                    02094 	OUT ($DF),A
8992                    02095 	LD A,$07	; Read joysticks instead of keyboard.
8992                    02096 	OUT ($DE),A
8992                    02097     ELSE
8992  F3                02098 	DI
8993                    02099     ENDIF
8993  310074            02100 	LD SP,STACK
8996  DBBF              02101 	IN A,(VDP+1)
8998  010182            02102 	LD BC,$8201
899B  CD2480            02103 	CALL WRTVDP
899E  DBBF              02104 	IN A,(VDP+1)
89A0  010182            02105 	LD BC,$8201
89A3  CD2480            02106 	CALL WRTVDP
89A6                    02107   IF CVBASIC_BANK_SWITCHING
89A6                    02108     IF COLECO
89A6  3AC0FF            02109 	LD A,($FFC0)	; Megacart
89A9                    02110     ENDIF
89A9                    02111     IF SG1000
89A9                    02112         LD A,1		; Sega mapper
89A9                    02113         LD ($FFFE),A
89A9                    02114     ENDIF
89A9                    02115     IF MSX
89A9                    02116         LD A,1		; ASCII 16K
89A9                    02117         LD ($7000),A
89A9                    02118     ENDIF
89A9                    02119   ENDIF
89A9  2A8A70            02120 	LD HL,(LFSR)	; Save RAM trash for random generator.
89AC  110070            02121 	LD DE,BASE_RAM
89AF  AF                02122 	XOR A
89B0  12                02123 	LD (DE),A
89B1  13                02124 	INC DE
89B2  CB52              02125 	BIT 2,D
89B4  CAB089            02126 	JP Z,$-4
89B7  228A70            02127 	LD (LFSR),HL
89BA                    02128 
89BA                    02129     IF COLECO
89BA  3A6900            02130 	LD A,($0069)
89BD  FE32              02131 	CP 50
89BF  3E00              02132 	LD A,0
89C1  2802              02133 	JR Z,$+4
89C3  3E01              02134 	LD A,1
89C5  329270            02135 	LD (NTSC),A
89C8                    02136     ENDIF
89C8                    02137     IF SG1000
89C8                    02138 	LD A,1
89C8                    02139 	LD (NTSC),A
89C8                    02140     ENDIF
89C8                    02141     IF MSX
89C8                    02142 	LD A,($002B)
89C8                    02143 	CPL
89C8                    02144 	RLCA
89C8                    02145 	AND $01
89C8                    02146 	LD (NTSC),A
89C8                    02147 
89C8                    02148         CALL RSLREG
89C8                    02149         LD B,1          ; $4000-$7fff
89C8                    02150         CALL GET_SLOT_MAPPING
89C8                    02151         LD H,$80
89C8                    02152         CALL ENASLT     ; Map into $8000-$BFFF
89C8                    02153     ENDIF
89C8                    02154 
89C8                    02155     IF SGM
89C8                    02156 WRITE_REGISTER:	EQU $1FD9
89C8                    02157 FILL_VRAM:	EQU $1F82
89C8                    02158 WRITE_VRAM:	EQU $1FDF
89C8                    02159 
89C8                    02160         LD B,$00	; First step.
89C8                    02161 .0:     LD HL,$2000	; RAM at $2000.
89C8                    02162 .1:     LD (HL),H	; Try to write a byte.
89C8                    02163         INC H
89C8                    02164         JP P,.1		; Repeat until reaching $8000.
89C8                    02165         LD H,$20	; Go back at $2000.
89C8                    02166 .2:     LD A,(HL)	; Read back byte.
89C8                    02167         CP H		; Is it correct?
89C8                    02168         JR NZ,.3	; No, jump.
89C8                    02169         INC H
89C8                    02170         JP P,.2		; Repeat until reaching $8000.
89C8                    02171         JP .4		; Memory valid!
89C8                    02172 
89C8                    02173 .3:     LD A,$01        ; Enable SGM
89C8                    02174         OUT ($53),A
89C8                    02175         INC B
89C8                    02176         BIT 1,B         ; Already enabled?
89C8                    02177         JR Z,.0		; No, test RAM again.
89C8                    02178 
89C8                    02179         LD BC,$0000
89C8                    02180         CALL WRITE_REGISTER
89C8                    02181         LD BC,$0180
89C8                    02182         CALL WRITE_REGISTER
89C8                    02183         LD BC,$0206
89C8                    02184         CALL WRITE_REGISTER
89C8                    02185         LD BC,$0380
89C8                    02186         CALL WRITE_REGISTER
89C8                    02187         LD BC,$0400
89C8                    02188         CALL WRITE_REGISTER
89C8                    02189         LD BC,$0536
89C8                    02190         CALL WRITE_REGISTER
89C8                    02191         LD BC,$0607
89C8                    02192         CALL WRITE_REGISTER
89C8                    02193         LD BC,$070D
89C8                    02194         CALL WRITE_REGISTER
89C8                    02195         LD BC,$03F0
89C8                    02196         LD DE,$00E8 
89C8                    02197         LD HL,$158B     ; Note! direct access to Colecovision ROM
89C8                    02198         CALL WRITE_VRAM
89C8                    02199         LD HL,$2000
89C8                    02200         LD DE,32 
89C8                    02201         LD A,$FD
89C8                    02202         CALL FILL_VRAM
89C8                    02203         LD HL,$1B00
89C8                    02204         LD DE,128
89C8                    02205         LD A,$D1
89C8                    02206         CALL FILL_VRAM
89C8                    02207         LD HL,$1800
89C8                    02208         LD DE,769
89C8                    02209         LD A,$20
89C8                    02210         CALL FILL_VRAM
89C8                    02211         LD BC,$0020
89C8                    02212         LD DE,$1980 
89C8                    02213         LD HL,.5
89C8                    02214         CALL WRITE_VRAM
89C8                    02215         LD BC,$01C0
89C8                    02216         CALL WRITE_REGISTER
89C8                    02217         JR $
89C8                    02218 
89C8                    02219 .5:     DB " SUPER GAME MODULE NOT DETECTED "
89C8                    02220 
89C8                    02221 .4:
89C8                    02222 	LD IX,(LFSR)
89C8                    02223         LD HL,$2000
89C8                    02224         LD DE,$2001
89C8                    02225         LD BC,$5FFF
89C8                    02226         LD (HL),0
89C8                    02227         LDIR
89C8                    02228 	LD (LFSR),IX
89C8                    02229     ENDIF
89C8  CDB184            02230 	CALL MUSIC_INIT
89CB                    02231 
89CB  AF                02232 	XOR A
89CC  328C70            02233 	LD (MODE),A
89CF                    02234 
89CF  CDF582            02235 	CALL MODE_0
89D2                    02236 
89D2  3EFF              02237 	LD A,$FF
89D4  328E70            02238 	LD (JOY1_DATA),A
89D7  328F70            02239 	LD (JOY2_DATA),A
89DA  3E0F              02240 	LD A,$0F
89DC  329070            02241 	LD (KEY1_DATA),A
89DF  329170            02242 	LD (KEY2_DATA),A
89E2                    02243 
89E2                    02244     IF MSX
89E2                    02245 	LD HL,NMI_HANDLER
89E2                    02246 	LD ($FD9B),HL
89E2                    02247 	LD A,$C3
89E2                    02248 	LD ($FD9A),A
89E2                    02249     ENDIF
89E2                    02250 
89E2                    02251 	; CVBasic program start.
89E2                    02252 	; 	rem
89E2                    02253 	; 	rem Bank-switching example
89E2                    02254 	; 	rem by Oscar Toledo G. http://nanochess.org
89E2                    02255 	; 	rem Apr/27/2024
89E2                    02256 	; 	rem
89E2                    02257 	; 
89E2                    02258 	; 	BANK ROM 128	' Select a 128KB target ROM size.
89E2                    02259 	; 			' Now it is in bank 0.
89E2                    02260 	; 
89E2                    02261 	; 	PLAY FULL
89E2  3E05              02262 	LD A,5
89E4  329470            02263 	LD (MUSIC_MODE),A
89E7                    02264 	; 	BANK SELECT 1	' Select bank 1 to access.
89E7  3AF8FF            02265 	LD A,($FFF8)
89EA                    02266 	; 	PLAY tune_2
89EA  2100C0            02267 	LD HL,CVB_TUNE_2
89ED  CDD784            02268 	CALL MUSIC_PLAY
89F0                    02269 	; 
89F0                    02270 	; 	BANK SELECT 2	' Select bank 2 to access.
89F0  3AF9FF            02271 	LD A,($FFF9)
89F3                    02272 	; 
89F3                    02273 	; 	' Notice bank 2 is selected, but the
89F3                    02274 	; 	' music is being played from bank 1.
89F3                    02275 	; 
89F3                    02276 	; 	MODE 1
89F3  CD5483            02277 	CALL MODE_1
89F6                    02278 	; 	SCREEN DISABLE
89F6  CD8B80            02279 	CALL DISSCR
89F9                    02280 	; 	DEFINE VRAM PLETTER $0000,$1800,image_bitmap
89F9  210000            02281 	LD HL,0
89FC  E5                02282 	PUSH HL
89FD  210018            02283 	LD HL,6144
8A00  E5                02284 	PUSH HL
8A01  2100C0            02285 	LD HL,CVB_IMAGE_BITMAP
8A04  C1                02286 	POP BC
8A05  D1                02287 	POP DE
8A06  CDC888            02288 	CALL UNPACK
8A09                    02289 	; 	DEFINE VRAM PLETTER $2000,$1800,image_color
8A09  210020            02290 	LD HL,8192
8A0C  E5                02291 	PUSH HL
8A0D  210018            02292 	LD HL,6144
8A10  E5                02293 	PUSH HL
8A11  216CCE            02294 	LD HL,CVB_IMAGE_COLOR
8A14  C1                02295 	POP BC
8A15  D1                02296 	POP DE
8A16  CDC888            02297 	CALL UNPACK
8A19                    02298 	; 	SCREEN ENABLE
8A19  CD9780            02299 	CALL ENASCR
8A1C                    02300 	; 
8A1C                    02301 	; 	WHILE 1: WEND
8A1C                    02302 CV1:
8A1C  C31C8A            02303 	JP CV1
8A1F                    02304 CV2:
8A1F                    02305 	; 
8A1F                    02306 	; 	BANK 1		' Start of bank 1 data
8A1F  FFFFFFFFFFFFFFFF  02307 	TIMES $BFBF-$ DB $FF
BFBF  FF                02308 	DB $FF
BFC0  FFFFFFFFFFFFFFFF  02309 	TIMES $40 DB $FF
                        02310 	FORG $00000
C000                    02311 	ORG $C000
C000                    02312 	; 
C000                    02313 	; 	' Mecha-8 level 5: alone
C000                    02314 	; 	' Fragment
C000                    02315 	; tune_2: DATA BYTE 5
C000                    02316 CVB_TUNE_2:
C000  05                02317 	DB $05
C001                    02318 	; 	MUSIC G5#Y,C3#,-,M1
C001  AD0E0001          02319 	DB $AD,$0E,$00,$01
C005                    02320 	; 	MUSIC S,S,-,M2
C005  3F3F0002          02321 	DB $3F,$3F,$00,$02
C009                    02322 	; 	MUSIC F5#,G3#,-,M2
C009  AB150002          02323 	DB $AB,$15,$00,$02
C00D                    02324 	; 	MUSIC S,S,-,M2
C00D  3F3F0002          02325 	DB $3F,$3F,$00,$02
C011                    02326 	; 	MUSIC E5,C3#,-,M1
C011  A90E0001          02327 	DB $A9,$0E,$00,$01
C015                    02328 	; 	MUSIC S,S,-,M2
C015  3F3F0002          02329 	DB $3F,$3F,$00,$02
C019                    02330 	; 	MUSIC D5#,G3#,-,M2
C019  A8150002          02331 	DB $A8,$15,$00,$02
C01D                    02332 	; 	MUSIC S,S,-,M2
C01D  3F3F0002          02333 	DB $3F,$3F,$00,$02
C021                    02334 	; 	MUSIC E5,C3#,-,M1
C021  A90E0001          02335 	DB $A9,$0E,$00,$01
C025                    02336 	; 	MUSIC S,S,-,M2
C025  3F3F0002          02337 	DB $3F,$3F,$00,$02
C029                    02338 	; 	MUSIC F5#,G3#,-,M2
C029  AB150002          02339 	DB $AB,$15,$00,$02
C02D                    02340 	; 	MUSIC S,S,-,M2
C02D  3F3F0002          02341 	DB $3F,$3F,$00,$02
C031                    02342 	; 	MUSIC G5#,C3#,-,M1
C031  AD0E0001          02343 	DB $AD,$0E,$00,$01
C035                    02344 	; 	MUSIC S,S,-,M2
C035  3F3F0002          02345 	DB $3F,$3F,$00,$02
C039                    02346 	; 	MUSIC S,G3#,-,M2
C039  3F150002          02347 	DB $3F,$15,$00,$02
C03D                    02348 	; 	MUSIC S,S,-,M2
C03D  3F3F0002          02349 	DB $3F,$3F,$00,$02
C041                    02350 	; 	MUSIC S,C3#,-,M1
C041  3F0E0001          02351 	DB $3F,$0E,$00,$01
C045                    02352 	; 	MUSIC S,S,-,M2
C045  3F3F0002          02353 	DB $3F,$3F,$00,$02
C049                    02354 	; 	MUSIC C5#,G3#,-,M2
C049  A6150002          02355 	DB $A6,$15,$00,$02
C04D                    02356 	; 	MUSIC -,S,-,M2
C04D  003F0002          02357 	DB $00,$3F,$00,$02
C051                    02358 	; 	MUSIC G5#,C3#,-,M1
C051  AD0E0001          02359 	DB $AD,$0E,$00,$01
C055                    02360 	; 	MUSIC S,S,-,M2
C055  3F3F0002          02361 	DB $3F,$3F,$00,$02
C059                    02362 	; 	MUSIC E5,G3#,-,M2
C059  A9150002          02363 	DB $A9,$15,$00,$02
C05D                    02364 	; 	MUSIC -,S,-,M2
C05D  003F0002          02365 	DB $00,$3F,$00,$02
C061                    02366 	; 	MUSIC F5#,B2,-,M1
C061  AB0C0001          02367 	DB $AB,$0C,$00,$01
C065                    02368 	; 	MUSIC S,S,-,M2
C065  3F3F0002          02369 	DB $3F,$3F,$00,$02
C069                    02370 	; 	MUSIC S,F3#,-,M2
C069  3F130002          02371 	DB $3F,$13,$00,$02
C06D                    02372 	; 	MUSIC S,S,-,M2
C06D  3F3F0002          02373 	DB $3F,$3F,$00,$02
C071                    02374 	; 	MUSIC S,B2,-,M1
C071  3F0C0001          02375 	DB $3F,$0C,$00,$01
C075                    02376 	; 	MUSIC S,S,-,M2
C075  3F3F0002          02377 	DB $3F,$3F,$00,$02
C079                    02378 	; 	MUSIC -,F3#,-,M2
C079  00130002          02379 	DB $00,$13,$00,$02
C07D                    02380 	; 	MUSIC -,S,-,M2
C07D  003F0002          02381 	DB $00,$3F,$00,$02
C081                    02382 	; 	MUSIC -,B2,-,M1
C081  000C0001          02383 	DB $00,$0C,$00,$01
C085                    02384 	; 	MUSIC -,S,-,M2
C085  003F0002          02385 	DB $00,$3F,$00,$02
C089                    02386 	; 	MUSIC -,F3#,-,M2
C089  00130002          02387 	DB $00,$13,$00,$02
C08D                    02388 	; 	MUSIC -,S,-,M2
C08D  003F0002          02389 	DB $00,$3F,$00,$02
C091                    02390 	; 	MUSIC -,B2,-,M1
C091  000C0001          02391 	DB $00,$0C,$00,$01
C095                    02392 	; 	MUSIC -,S,-,M2
C095  003F0002          02393 	DB $00,$3F,$00,$02
C099                    02394 	; 	MUSIC -,F3#,-,M1
C099  00130001          02395 	DB $00,$13,$00,$01
C09D                    02396 	; 	MUSIC -,S,-,M2
C09D  003F0002          02397 	DB $00,$3F,$00,$02
C0A1                    02398 	; 	MUSIC C5#,B2,-,M1
C0A1  A60C0001          02399 	DB $A6,$0C,$00,$01
C0A5                    02400 	; 	MUSIC S,S,-,M2
C0A5  3F3F0002          02401 	DB $3F,$3F,$00,$02
C0A9                    02402 	; 	MUSIC F5#,F3#,-,M1
C0A9  AB130001          02403 	DB $AB,$13,$00,$01
C0AD                    02404 	; 	MUSIC S,S,-,M2
C0AD  3F3F0002          02405 	DB $3F,$3F,$00,$02
C0B1                    02406 	; 	MUSIC C5#,B2,-,M1
C0B1  A60C0001          02407 	DB $A6,$0C,$00,$01
C0B5                    02408 	; 	MUSIC S,S,-,M2
C0B5  3F3F0002          02409 	DB $3F,$3F,$00,$02
C0B9                    02410 	; 	MUSIC E5,A2,-,M1
C0B9  A90A0001          02411 	DB $A9,$0A,$00,$01
C0BD                    02412 	; 	MUSIC S,S,-,M2
C0BD  3F3F0002          02413 	DB $3F,$3F,$00,$02
C0C1                    02414 	; 	MUSIC S,E3,-,M1
C0C1  3F110001          02415 	DB $3F,$11,$00,$01
C0C5                    02416 	; 	MUSIC S,S,-,M2
C0C5  3F3F0002          02417 	DB $3F,$3F,$00,$02
C0C9                    02418 	; 	MUSIC S,A2,-,M1
C0C9  3F0A0001          02419 	DB $3F,$0A,$00,$01
C0CD                    02420 	; 	MUSIC S,S,-,M2
C0CD  3F3F0002          02421 	DB $3F,$3F,$00,$02
C0D1                    02422 	; 	MUSIC S,E3,-,M1
C0D1  3F110001          02423 	DB $3F,$11,$00,$01
C0D5                    02424 	; 	MUSIC S,S,-,M2
C0D5  3F3F0002          02425 	DB $3F,$3F,$00,$02
C0D9                    02426 	; 	MUSIC S,A2,-,M1
C0D9  3F0A0001          02427 	DB $3F,$0A,$00,$01
C0DD                    02428 	; 	MUSIC S,S,-,M2
C0DD  3F3F0002          02429 	DB $3F,$3F,$00,$02
C0E1                    02430 	; 	MUSIC S,E3,-,M1
C0E1  3F110001          02431 	DB $3F,$11,$00,$01
C0E5                    02432 	; 	MUSIC S,S,-,M2
C0E5  3F3F0002          02433 	DB $3F,$3F,$00,$02
C0E9                    02434 	; 	MUSIC S,A2,-,M1
C0E9  3F0A0001          02435 	DB $3F,$0A,$00,$01
C0ED                    02436 	; 	MUSIC S,S,-,M2
C0ED  3F3F0002          02437 	DB $3F,$3F,$00,$02
C0F1                    02438 	; 	MUSIC F5#,E3,-,M1
C0F1  AB110001          02439 	DB $AB,$11,$00,$01
C0F5                    02440 	; 	MUSIC S,S,-,M2
C0F5  3F3F0002          02441 	DB $3F,$3F,$00,$02
C0F9                    02442 	; 	MUSIC E5,A2,-,M2
C0F9  A90A0002          02443 	DB $A9,$0A,$00,$02
C0FD                    02444 	; 	MUSIC S,S,-,M2
C0FD  3F3F0002          02445 	DB $3F,$3F,$00,$02
C101                    02446 	; 	MUSIC D5#,E3,-,M1
C101  A8110001          02447 	DB $A8,$11,$00,$01
C105                    02448 	; 	MUSIC S,S,-,M2
C105  3F3F0002          02449 	DB $3F,$3F,$00,$02
C109                    02450 	; 	MUSIC S,A2,-,M2
C109  3F0A0002          02451 	DB $3F,$0A,$00,$02
C10D                    02452 	; 	MUSIC S,S,-,M2
C10D  3F3F0002          02453 	DB $3F,$3F,$00,$02
C111                    02454 	; 	MUSIC C5,G2#,-,M1
C111  A5090001          02455 	DB $A5,$09,$00,$01
C115                    02456 	; 	MUSIC S,S,-,M2
C115  3F3F0002          02457 	DB $3F,$3F,$00,$02
C119                    02458 	; 	MUSIC S,D3#,-,M2
C119  3F100002          02459 	DB $3F,$10,$00,$02
C11D                    02460 	; 	MUSIC S,S,-,M2
C11D  3F3F0002          02461 	DB $3F,$3F,$00,$02
C121                    02462 	; 	MUSIC S,G2#,-,M1
C121  3F090001          02463 	DB $3F,$09,$00,$01
C125                    02464 	; 	MUSIC S,S,-,M2
C125  3F3F0002          02465 	DB $3F,$3F,$00,$02
C129                    02466 	; 	MUSIC S,D3#,-,M2
C129  3F100002          02467 	DB $3F,$10,$00,$02
C12D                    02468 	; 	MUSIC S,S,-,M2
C12D  3F3F0002          02469 	DB $3F,$3F,$00,$02
C131                    02470 	; 	MUSIC S,G2#,-,M1
C131  3F090001          02471 	DB $3F,$09,$00,$01
C135                    02472 	; 	MUSIC S,S,-,M2
C135  3F3F0002          02473 	DB $3F,$3F,$00,$02
C139                    02474 	; 	MUSIC -,D3#,-,M2
C139  00100002          02475 	DB $00,$10,$00,$02
C13D                    02476 	; 	MUSIC -,S,-,M2
C13D  003F0002          02477 	DB $00,$3F,$00,$02
C141                    02478 	; 	MUSIC -,G2#,-,M1
C141  00090001          02479 	DB $00,$09,$00,$01
C145                    02480 	; 	MUSIC -,S,-,M2
C145  003F0002          02481 	DB $00,$3F,$00,$02
C149                    02482 	; 	MUSIC -,D3#,-,M2
C149  00100002          02483 	DB $00,$10,$00,$02
C14D                    02484 	; 	MUSIC -,S,-,M2
C14D  003F0002          02485 	DB $00,$3F,$00,$02
C151                    02486 	; 	MUSIC -,G2#,-,M1
C151  00090001          02487 	DB $00,$09,$00,$01
C155                    02488 	; 	MUSIC -,S,-,M2
C155  003F0002          02489 	DB $00,$3F,$00,$02
C159                    02490 	; 	MUSIC -,D3#,-,M1
C159  00100001          02491 	DB $00,$10,$00,$01
C15D                    02492 	; 	MUSIC -,S,-,M3
C15D  003F0003          02493 	DB $00,$3F,$00,$03
C161                    02494 	; 	MUSIC -,G2#,-,M1
C161  00090001          02495 	DB $00,$09,$00,$01
C165                    02496 	; 	MUSIC -,S,-,M2
C165  003F0002          02497 	DB $00,$3F,$00,$02
C169                    02498 	; 	MUSIC -,D3#,-,M1
C169  00100001          02499 	DB $00,$10,$00,$01
C16D                    02500 	; 	MUSIC -,S,-,M3
C16D  003F0003          02501 	DB $00,$3F,$00,$03
C171                    02502 	; 	MUSIC -,G2#,-,M1
C171  00090001          02503 	DB $00,$09,$00,$01
C175                    02504 	; 	MUSIC -,S,-,M1
C175  003F0001          02505 	DB $00,$3F,$00,$01
C179                    02506 	; 	MUSIC -,D3#,-,M1
C179  00100001          02507 	DB $00,$10,$00,$01
C17D                    02508 	; 	MUSIC -,S,-,M1
C17D  003F0001          02509 	DB $00,$3F,$00,$01
C181                    02510 	; 	MUSIC REPEAT
C181  FD000000          02511 	DB $FD,$00,$00,$00
C185                    02512 	; 
C185                    02513 	; 	BANK 2		' Start of bank 2 data.
C185  FFFFFFFFFFFFFFFF  02514 	TIMES $FFBF-$ DB $FF
FFBF  F8                02515 	DB $F8
FFC0  FFFFFFFFFFFFFFFF  02516 	TIMES $40 DB $FF
                        02517 	FORG $04000
C000                    02518 	ORG $C000
C000                    02519 	; 
C000                    02520 	; image_bitmap:
C000                    02521 CVB_IMAGE_BITMAP:
C000                    02522 	; 	DATA BYTE $61,$bf,$5f,$ff,$df,$ff,$80,$00
C000  61                02523 	DB $61
C001  BF                02524 	DB $BF
C002  5F                02525 	DB $5F
C003  FF                02526 	DB $FF
C004  DF                02527 	DB $DF
C005  FF                02528 	DB $FF
C006  80                02529 	DB $80
C007  00                02530 	DB $00
C008                    02531 	; 	DATA BYTE $70,$10,$3e,$0e,$87,$00,$c0,$e0
C008  70                02532 	DB $70
C009  10                02533 	DB $10
C00A  3E                02534 	DB $3E
C00B  0E                02535 	DB $0E
C00C  87                02536 	DB $87
C00D  00                02537 	DB $00
C00E  C0                02538 	DB $C0
C00F  E0                02539 	DB $E0
C010                    02540 	; 	DATA BYTE $fc,$7f,$1f,$07,$03,$00,$18,$00
C010  FC                02541 	DB $FC
C011  7F                02542 	DB $7F
C012  1F                02543 	DB $1F
C013  07                02544 	DB $07
C014  03                02545 	DB $03
C015  00                02546 	DB $00
C016  18                02547 	DB $18
C017  00                02548 	DB $00
C018                    02549 	; 	DATA BYTE $02,$40,$12,$55,$0e,$aa,$55,$7f
C018  02                02550 	DB $02
C019  40                02551 	DB $40
C01A  12                02552 	DB $12
C01B  55                02553 	DB $55
C01C  0E                02554 	DB $0E
C01D  AA                02555 	DB $AA
C01E  55                02556 	DB $55
C01F  7F                02557 	DB $7F
C020                    02558 	; 	DATA BYTE $7f,$1b,$a3,$00,$09,$ea,$fd,$68
C020  7F                02559 	DB $7F
C021  1B                02560 	DB $1B
C022  A3                02561 	DB $A3
C023  00                02562 	DB $00
C024  09                02563 	DB $09
C025  EA                02564 	DB $EA
C026  FD                02565 	DB $FD
C027  68                02566 	DB $68
C028                    02567 	; 	DATA BYTE $09,$22,$e0,$c4,$07,$c0,$d5,$aa
C028  09                02568 	DB $09
C029  22                02569 	DB $22
C02A  E0                02570 	DB $E0
C02B  C4                02571 	DB $C4
C02C  07                02572 	DB $07
C02D  C0                02573 	DB $C0
C02E  D5                02574 	DB $D5
C02F  AA                02575 	DB $AA
C030                    02576 	; 	DATA BYTE $d4,$0f,$01,$00,$1d,$0f,$7f,$8e
C030  D4                02577 	DB $D4
C031  0F                02578 	DB $0F
C032  01                02579 	DB $01
C033  00                02580 	DB $00
C034  1D                02581 	DB $1D
C035  0F                02582 	DB $0F
C036  7F                02583 	DB $7F
C037  8E                02584 	DB $8E
C038                    02585 	; 	DATA BYTE $07,$8f,$90,$01,$3a,$99,$f9,$fc
C038  07                02586 	DB $07
C039  8F                02587 	DB $8F
C03A  90                02588 	DB $90
C03B  01                02589 	DB $01
C03C  3A                02590 	DB $3A
C03D  99                02591 	DB $99
C03E  F9                02592 	DB $F9
C03F  FC                02593 	DB $FC
C040                    02594 	; 	DATA BYTE $0d,$fe,$9e,$fe,$fe,$20,$33,$03
C040  0D                02595 	DB $0D
C041  FE                02596 	DB $FE
C042  9E                02597 	DB $9E
C043  FE                02598 	DB $FE
C044  FE                02599 	DB $FE
C045  20                02600 	DB $20
C046  33                02601 	DB $33
C047  03                02602 	DB $03
C048                    02603 	; 	DATA BYTE $ed,$67,$c8,$cc,$00,$88,$0c,$df
C048  ED                02604 	DB $ED
C049  67                02605 	DB $67
C04A  C8                02606 	DB $C8
C04B  CC                02607 	DB $CC
C04C  00                02608 	DB $00
C04D  88                02609 	DB $88
C04E  0C                02610 	DB $0C
C04F  DF                02611 	DB $DF
C050                    02612 	; 	DATA BYTE $cf,$e7,$e7,$08,$44,$d8,$01,$8a
C050  CF                02613 	DB $CF
C051  E7                02614 	DB $E7
C052  E7                02615 	DB $E7
C053  08                02616 	DB $08
C054  44                02617 	DB $44
C055  D8                02618 	DB $D8
C056  01                02619 	DB $01
C057  8A                02620 	DB $8A
C058                    02621 	; 	DATA BYTE $df,$01,$8a,$ff,$8a,$10,$fb,$40
C058  DF                02622 	DB $DF
C059  01                02623 	DB $01
C05A  8A                02624 	DB $8A
C05B  FF                02625 	DB $FF
C05C  8A                02626 	DB $8A
C05D  10                02627 	DB $10
C05E  FB                02628 	DB $FB
C05F  40                02629 	DB $40
C060                    02630 	; 	DATA BYTE $03,$30,$00,$05,$01,$45,$ff,$df
C060  03                02631 	DB $03
C061  30                02632 	DB $30
C062  00                02633 	DB $00
C063  05                02634 	DB $05
C064  01                02635 	DB $01
C065  45                02636 	DB $45
C066  FF                02637 	DB $FF
C067  DF                02638 	DB $DF
C068                    02639 	; 	DATA BYTE $c3,$00,$fc,$f8,$05,$00,$f0,$f9
C068  C3                02640 	DB $C3
C069  00                02641 	DB $00
C06A  FC                02642 	DB $FC
C06B  F8                02643 	DB $F8
C06C  05                02644 	DB $05
C06D  00                02645 	DB $00
C06E  F0                02646 	DB $F0
C06F  F9                02647 	DB $F9
C070                    02648 	; 	DATA BYTE $d0,$5b,$e0,$01,$45,$cc,$55,$01
C070  D0                02649 	DB $D0
C071  5B                02650 	DB $5B
C072  E0                02651 	DB $E0
C073  01                02652 	DB $01
C074  45                02653 	DB $45
C075  CC                02654 	DB $CC
C076  55                02655 	DB $55
C077  01                02656 	DB $01
C078                    02657 	; 	DATA BYTE $9f,$1f,$9f,$55,$3f,$5e,$38,$c3
C078  9F                02658 	DB $9F
C079  1F                02659 	DB $1F
C07A  9F                02660 	DB $9F
C07B  55                02661 	DB $55
C07C  3F                02662 	DB $3F
C07D  5E                02663 	DB $5E
C07E  38                02664 	DB $38
C07F  C3                02665 	DB $C3
C080                    02666 	; 	DATA BYTE $18,$f0,$af,$0e,$00,$8f,$1f,$1f
C080  18                02667 	DB $18
C081  F0                02668 	DB $F0
C082  AF                02669 	DB $AF
C083  0E                02670 	DB $0E
C084  00                02671 	DB $00
C085  8F                02672 	DB $8F
C086  1F                02673 	DB $1F
C087  1F                02674 	DB $1F
C088                    02675 	; 	DATA BYTE $01,$18,$28,$51,$a0,$41,$82,$07
C088  01                02676 	DB $01
C089  18                02677 	DB $18
C08A  28                02678 	DB $28
C08B  51                02679 	DB $51
C08C  A0                02680 	DB $A0
C08D  41                02681 	DB $41
C08E  82                02682 	DB $82
C08F  07                02683 	DB $07
C090                    02684 	; 	DATA BYTE $5b,$09,$27,$b1,$01,$a8,$50,$90
C090  5B                02685 	DB $5B
C091  09                02686 	DB $09
C092  27                02687 	DB $27
C093  B1                02688 	DB $B1
C094  01                02689 	DB $01
C095  A8                02690 	DB $A8
C096  50                02691 	DB $50
C097  90                02692 	DB $90
C098                    02693 	; 	DATA BYTE $1f,$8f,$11,$50,$08,$07,$40,$00
C098  1F                02694 	DB $1F
C099  8F                02695 	DB $8F
C09A  11                02696 	DB $11
C09B  50                02697 	DB $50
C09C  08                02698 	DB $08
C09D  07                02699 	DB $07
C09E  40                02700 	DB $40
C09F  00                02701 	DB $00
C0A0                    02702 	; 	DATA BYTE $90,$00,$59,$bf,$7f,$ea,$03,$d5
C0A0  90                02703 	DB $90
C0A1  00                02704 	DB $00
C0A2  59                02705 	DB $59
C0A3  BF                02706 	DB $BF
C0A4  7F                02707 	DB $7F
C0A5  EA                02708 	DB $EA
C0A6  03                02709 	DB $03
C0A7  D5                02710 	DB $D5
C0A8                    02711 	; 	DATA BYTE $bf,$fe,$7e,$d5,$ea,$80,$01,$55
C0A8  BF                02712 	DB $BF
C0A9  FE                02713 	DB $FE
C0AA  7E                02714 	DB $7E
C0AB  D5                02715 	DB $D5
C0AC  EA                02716 	DB $EA
C0AD  80                02717 	DB $80
C0AE  01                02718 	DB $01
C0AF  55                02719 	DB $55
C0B0                    02720 	; 	DATA BYTE $a2,$c0,$a2,$46,$e0,$0f,$e6,$e4
C0B0  A2                02721 	DB $A2
C0B1  C0                02722 	DB $C0
C0B2  A2                02723 	DB $A2
C0B3  46                02724 	DB $46
C0B4  E0                02725 	DB $E0
C0B5  0F                02726 	DB $0F
C0B6  E6                02727 	DB $E6
C0B7  E4                02728 	DB $E4
C0B8                    02729 	; 	DATA BYTE $e4,$aa,$03,$c9,$01,$01,$8f,$83
C0B8  E4                02730 	DB $E4
C0B9  AA                02731 	DB $AA
C0BA  03                02732 	DB $03
C0BB  C9                02733 	DB $C9
C0BC  01                02734 	DB $01
C0BD  01                02735 	DB $01
C0BE  8F                02736 	DB $8F
C0BF  83                02737 	DB $83
C0C0                    02738 	; 	DATA BYTE $81,$80,$80,$b0,$85,$80,$aa,$3f
C0C0  81                02739 	DB $81
C0C1  80                02740 	DB $80
C0C2  80                02741 	DB $80
C0C3  B0                02742 	DB $B0
C0C4  85                02743 	DB $85
C0C5  80                02744 	DB $80
C0C6  AA                02745 	DB $AA
C0C7  3F                02746 	DB $3F
C0C8                    02747 	; 	DATA BYTE $aa,$c4,$8a,$d4,$aa,$42,$d1,$01
C0C8  AA                02748 	DB $AA
C0C9  C4                02749 	DB $C4
C0CA  8A                02750 	DB $8A
C0CB  D4                02751 	DB $D4
C0CC  AA                02752 	DB $AA
C0CD  42                02753 	DB $42
C0CE  D1                02754 	DB $D1
C0CF  01                02755 	DB $01
C0D0                    02756 	; 	DATA BYTE $bf,$fc,$fc,$33,$c2,$04,$df,$04
C0D0  BF                02757 	DB $BF
C0D1  FC                02758 	DB $FC
C0D2  FC                02759 	DB $FC
C0D3  33                02760 	DB $33
C0D4  C2                02761 	DB $C2
C0D5  04                02762 	DB $04
C0D6  DF                02763 	DB $DF
C0D7  04                02764 	DB $04
C0D8                    02765 	; 	DATA BYTE $b1,$14,$0f,$b2,$2d,$e3,$82,$93
C0D8  B1                02766 	DB $B1
C0D9  14                02767 	DB $14
C0DA  0F                02768 	DB $0F
C0DB  B2                02769 	DB $B2
C0DC  2D                02770 	DB $2D
C0DD  E3                02771 	DB $E3
C0DE  82                02772 	DB $82
C0DF  93                02773 	DB $93
C0E0                    02774 	; 	DATA BYTE $03,$34,$e3,$f1,$09,$0e,$0f,$80
C0E0  03                02775 	DB $03
C0E1  34                02776 	DB $34
C0E2  E3                02777 	DB $E3
C0E3  F1                02778 	DB $F1
C0E4  09                02779 	DB $09
C0E5  0E                02780 	DB $0E
C0E6  0F                02781 	DB $0F
C0E7  80                02782 	DB $80
C0E8                    02783 	; 	DATA BYTE $84,$88,$01,$4b,$df,$1f,$08,$01
C0E8  84                02784 	DB $84
C0E9  88                02785 	DB $88
C0EA  01                02786 	DB $01
C0EB  4B                02787 	DB $4B
C0EC  DF                02788 	DB $DF
C0ED  1F                02789 	DB $1F
C0EE  08                02790 	DB $08
C0EF  01                02791 	DB $01
C0F0                    02792 	; 	DATA BYTE $81,$ff,$40,$30,$01,$fb,$00,$23
C0F0  81                02793 	DB $81
C0F1  FF                02794 	DB $FF
C0F2  40                02795 	DB $40
C0F3  30                02796 	DB $30
C0F4  01                02797 	DB $01
C0F5  FB                02798 	DB $FB
C0F6  00                02799 	DB $00
C0F7  23                02800 	DB $23
C0F8                    02801 	; 	DATA BYTE $41,$03,$03,$40,$22,$40,$02,$54
C0F8  41                02802 	DB $41
C0F9  03                02803 	DB $03
C0FA  03                02804 	DB $03
C0FB  40                02805 	DB $40
C0FC  22                02806 	DB $22
C0FD  40                02807 	DB $40
C0FE  02                02808 	DB $02
C0FF  54                02809 	DB $54
C100                    02810 	; 	DATA BYTE $93,$4f,$07,$37,$07,$d0,$e4,$19
C100  93                02811 	DB $93
C101  4F                02812 	DB $4F
C102  07                02813 	DB $07
C103  37                02814 	DB $37
C104  07                02815 	DB $07
C105  D0                02816 	DB $D0
C106  E4                02817 	DB $E4
C107  19                02818 	DB $19
C108                    02819 	; 	DATA BYTE $7f,$01,$ae,$30,$00,$fe,$03,$80
C108  7F                02820 	DB $7F
C109  01                02821 	DB $01
C10A  AE                02822 	DB $AE
C10B  30                02823 	DB $30
C10C  00                02824 	DB $00
C10D  FE                02825 	DB $FE
C10E  03                02826 	DB $03
C10F  80                02827 	DB $80
C110                    02828 	; 	DATA BYTE $04,$60,$ff,$01,$80,$c4,$aa,$60
C110  04                02829 	DB $04
C111  60                02830 	DB $60
C112  FF                02831 	DB $FF
C113  01                02832 	DB $01
C114  80                02833 	DB $80
C115  C4                02834 	DB $C4
C116  AA                02835 	DB $AA
C117  60                02836 	DB $60
C118                    02837 	; 	DATA BYTE $fc,$c3,$68,$c9,$10,$db,$a3,$f7
C118  FC                02838 	DB $FC
C119  C3                02839 	DB $C3
C11A  68                02840 	DB $68
C11B  C9                02841 	DB $C9
C11C  10                02842 	DB $10
C11D  DB                02843 	DB $DB
C11E  A3                02844 	DB $A3
C11F  F7                02845 	DB $F7
C120                    02846 	; 	DATA BYTE $00,$fe,$e0,$84,$97,$44,$88,$02
C120  00                02847 	DB $00
C121  FE                02848 	DB $FE
C122  E0                02849 	DB $E0
C123  84                02850 	DB $84
C124  97                02851 	DB $97
C125  44                02852 	DB $44
C126  88                02853 	DB $88
C127  02                02854 	DB $02
C128                    02855 	; 	DATA BYTE $00,$1f,$55,$0e,$0c,$a2,$4e,$00
C128  00                02856 	DB $00
C129  1F                02857 	DB $1F
C12A  55                02858 	DB $55
C12B  0E                02859 	DB $0E
C12C  0C                02860 	DB $0C
C12D  A2                02861 	DB $A2
C12E  4E                02862 	DB $4E
C12F  00                02863 	DB $00
C130                    02864 	; 	DATA BYTE $1f,$bf,$3f,$7e,$7c,$f8,$f1,$e3
C130  1F                02865 	DB $1F
C131  BF                02866 	DB $BF
C132  3F                02867 	DB $3F
C133  7E                02868 	DB $7E
C134  7C                02869 	DB $7C
C135  F8                02870 	DB $F8
C136  F1                02871 	DB $F1
C137  E3                02872 	DB $E3
C138                    02873 	; 	DATA BYTE $68,$c7,$85,$0f,$d5,$00,$f5,$54
C138  68                02874 	DB $68
C139  C7                02875 	DB $C7
C13A  85                02876 	DB $85
C13B  0F                02877 	DB $0F
C13C  D5                02878 	DB $D5
C13D  00                02879 	DB $00
C13E  F5                02880 	DB $F5
C13F  54                02881 	DB $54
C140                    02882 	; 	DATA BYTE $a0,$00,$01,$80,$51,$02,$4f,$28
C140  A0                02883 	DB $A0
C141  00                02884 	DB $00
C142  01                02885 	DB $01
C143  80                02886 	DB $80
C144  51                02887 	DB $51
C145  02                02888 	DB $02
C146  4F                02889 	DB $4F
C147  28                02890 	DB $28
C148                    02891 	; 	DATA BYTE $70,$ec,$03,$f8,$a8,$40,$80,$c7
C148  70                02892 	DB $70
C149  EC                02893 	DB $EC
C14A  03                02894 	DB $03
C14B  F8                02895 	DB $F8
C14C  A8                02896 	DB $A8
C14D  40                02897 	DB $40
C14E  80                02898 	DB $80
C14F  C7                02899 	DB $C7
C150                    02900 	; 	DATA BYTE $07,$04,$a8,$00,$07,$3a,$80,$50
C150  07                02901 	DB $07
C151  04                02902 	DB $04
C152  A8                02903 	DB $A8
C153  00                02904 	DB $00
C154  07                02905 	DB $07
C155  3A                02906 	DB $3A
C156  80                02907 	DB $80
C157  50                02908 	DB $50
C158                    02909 	; 	DATA BYTE $47,$b1,$22,$8a,$41,$07,$20,$2a
C158  47                02910 	DB $47
C159  B1                02911 	DB $B1
C15A  22                02912 	DB $22
C15B  8A                02913 	DB $8A
C15C  41                02914 	DB $41
C15D  07                02915 	DB $07
C15E  20                02916 	DB $20
C15F  2A                02917 	DB $2A
C160                    02918 	; 	DATA BYTE $55,$f9,$00,$be,$75,$aa,$1f,$82
C160  55                02919 	DB $55
C161  F9                02920 	DB $F9
C162  00                02921 	DB $00
C163  BE                02922 	DB $BE
C164  75                02923 	DB $75
C165  AA                02924 	DB $AA
C166  1F                02925 	DB $1F
C167  82                02926 	DB $82
C168                    02927 	; 	DATA BYTE $51,$a2,$e4,$c0,$fb,$04,$ea,$0a
C168  51                02928 	DB $51
C169  A2                02929 	DB $A2
C16A  E4                02930 	DB $E4
C16B  C0                02931 	DB $C0
C16C  FB                02932 	DB $FB
C16D  04                02933 	DB $04
C16E  EA                02934 	DB $EA
C16F  0A                02935 	DB $0A
C170                    02936 	; 	DATA BYTE $44,$aa,$7f,$00,$3f,$c4,$1f,$80
C170  44                02937 	DB $44
C171  AA                02938 	DB $AA
C172  7F                02939 	DB $7F
C173  00                02940 	DB $00
C174  3F                02941 	DB $3F
C175  C4                02942 	DB $C4
C176  1F                02943 	DB $1F
C177  80                02944 	DB $80
C178                    02945 	; 	DATA BYTE $2f,$c0,$84,$00,$a0,$54,$0f,$ac
C178  2F                02946 	DB $2F
C179  C0                02947 	DB $C0
C17A  84                02948 	DB $84
C17B  00                02949 	DB $00
C17C  A0                02950 	DB $A0
C17D  54                02951 	DB $54
C17E  0F                02952 	DB $0F
C17F  AC                02953 	DB $AC
C180                    02954 	; 	DATA BYTE $09,$17,$01,$22,$02,$27,$e8,$e0
C180  09                02955 	DB $09
C181  17                02956 	DB $17
C182  01                02957 	DB $01
C183  22                02958 	DB $22
C184  02                02959 	DB $02
C185  27                02960 	DB $27
C186  E8                02961 	DB $E8
C187  E0                02962 	DB $E0
C188                    02963 	; 	DATA BYTE $d1,$ea,$e0,$00,$0c,$fd,$7f,$3d
C188  D1                02964 	DB $D1
C189  EA                02965 	DB $EA
C18A  E0                02966 	DB $E0
C18B  00                02967 	DB $00
C18C  0C                02968 	DB $0C
C18D  FD                02969 	DB $FD
C18E  7F                02970 	DB $7F
C18F  3D                02971 	DB $3D
C190                    02972 	; 	DATA BYTE $fc,$00,$41,$54,$7f,$f2,$f7,$e3
C190  FC                02973 	DB $FC
C191  00                02974 	DB $00
C192  41                02975 	DB $41
C193  54                02976 	DB $54
C194  7F                02977 	DB $7F
C195  F2                02978 	DB $F2
C196  F7                02979 	DB $F7
C197  E3                02980 	DB $E3
C198                    02981 	; 	DATA BYTE $54,$22,$4f,$0a,$1f,$04,$e7,$cf
C198  54                02982 	DB $54
C199  22                02983 	DB $22
C19A  4F                02984 	DB $4F
C19B  0A                02985 	DB $0A
C19C  1F                02986 	DB $1F
C19D  04                02987 	DB $04
C19E  E7                02988 	DB $E7
C19F  CF                02989 	DB $CF
C1A0                    02990 	; 	DATA BYTE $07,$83,$18,$96,$06,$47,$02,$18
C1A0  07                02991 	DB $07
C1A1  83                02992 	DB $83
C1A2  18                02993 	DB $18
C1A3  96                02994 	DB $96
C1A4  06                02995 	DB $06
C1A5  47                02996 	DB $47
C1A6  02                02997 	DB $02
C1A7  18                02998 	DB $18
C1A8                    02999 	; 	DATA BYTE $ff,$c8,$44,$f7,$18,$b1,$38,$fb
C1A8  FF                03000 	DB $FF
C1A9  C8                03001 	DB $C8
C1AA  44                03002 	DB $44
C1AB  F7                03003 	DB $F7
C1AC  18                03004 	DB $18
C1AD  B1                03005 	DB $B1
C1AE  38                03006 	DB $38
C1AF  FB                03007 	DB $FB
C1B0                    03008 	; 	DATA BYTE $18,$b7,$12,$03,$88,$fd,$01,$db
C1B0  18                03009 	DB $18
C1B1  B7                03010 	DB $B7
C1B2  12                03011 	DB $12
C1B3  03                03012 	DB $03
C1B4  88                03013 	DB $88
C1B5  FD                03014 	DB $FD
C1B6  01                03015 	DB $01
C1B7  DB                03016 	DB $DB
C1B8                    03017 	; 	DATA BYTE $80,$fb,$10,$05,$ff,$54,$01,$10
C1B8  80                03018 	DB $80
C1B9  FB                03019 	DB $FB
C1BA  10                03020 	DB $10
C1BB  05                03021 	DB $05
C1BC  FF                03022 	DB $FF
C1BD  54                03023 	DB $54
C1BE  01                03024 	DB $01
C1BF  10                03025 	DB $10
C1C0                    03026 	; 	DATA BYTE $54,$14,$61,$54,$87,$83,$01,$01
C1C0  54                03027 	DB $54
C1C1  14                03028 	DB $14
C1C2  61                03029 	DB $61
C1C3  54                03030 	DB $54
C1C4  87                03031 	DB $87
C1C5  83                03032 	DB $83
C1C6  01                03033 	DB $01
C1C7  01                03034 	DB $01
C1C8                    03035 	; 	DATA BYTE $3f,$3f,$bf,$c0,$e1,$70,$fe,$fb
C1C8  3F                03036 	DB $3F
C1C9  3F                03037 	DB $3F
C1CA  BF                03038 	DB $BF
C1CB  C0                03039 	DB $C0
C1CC  E1                03040 	DB $E1
C1CD  70                03041 	DB $70
C1CE  FE                03042 	DB $FE
C1CF  FB                03043 	DB $FB
C1D0                    03044 	; 	DATA BYTE $56,$70,$47,$e8,$ff,$09,$f0,$6f
C1D0  56                03045 	DB $56
C1D1  70                03046 	DB $70
C1D2  47                03047 	DB $47
C1D3  E8                03048 	DB $E8
C1D4  FF                03049 	DB $FF
C1D5  09                03050 	DB $09
C1D6  F0                03051 	DB $F0
C1D7  6F                03052 	DB $6F
C1D8                    03053 	; 	DATA BYTE $82,$10,$06,$fd,$f9,$be,$8c,$f3
C1D8  82                03054 	DB $82
C1D9  10                03055 	DB $10
C1DA  06                03056 	DB $06
C1DB  FD                03057 	DB $FD
C1DC  F9                03058 	DB $F9
C1DD  BE                03059 	DB $BE
C1DE  8C                03060 	DB $8C
C1DF  F3                03061 	DB $F3
C1E0                    03062 	; 	DATA BYTE $aa,$57,$01,$82,$97,$99,$20,$75
C1E0  AA                03063 	DB $AA
C1E1  57                03064 	DB $57
C1E2  01                03065 	DB $01
C1E3  82                03066 	DB $82
C1E4  97                03067 	DB $97
C1E5  99                03068 	DB $99
C1E6  20                03069 	DB $20
C1E7  75                03070 	DB $75
C1E8                    03071 	; 	DATA BYTE $7a,$fb,$7b,$48,$7b,$0f,$a0,$d7
C1E8  7A                03072 	DB $7A
C1E9  FB                03073 	DB $FB
C1EA  7B                03074 	DB $7B
C1EB  48                03075 	DB $48
C1EC  7B                03076 	DB $7B
C1ED  0F                03077 	DB $0F
C1EE  A0                03078 	DB $A0
C1EF  D7                03079 	DB $D7
C1F0                    03080 	; 	DATA BYTE $50,$44,$95,$4a,$11,$07,$03,$4d
C1F0  50                03081 	DB $50
C1F1  44                03082 	DB $44
C1F2  95                03083 	DB $95
C1F3  4A                03084 	DB $4A
C1F4  11                03085 	DB $11
C1F5  07                03086 	DB $07
C1F6  03                03087 	DB $03
C1F7  4D                03088 	DB $4D
C1F8                    03089 	; 	DATA BYTE $00,$37,$a3,$d7,$8e,$f2,$fa,$f3
C1F8  00                03090 	DB $00
C1F9  37                03091 	DB $37
C1FA  A3                03092 	DB $A3
C1FB  D7                03093 	DB $D7
C1FC  8E                03094 	DB $8E
C1FD  F2                03095 	DB $F2
C1FE  FA                03096 	DB $FA
C1FF  F3                03097 	DB $F3
C200                    03098 	; 	DATA BYTE $fa,$18,$f1,$fa,$f5,$fb,$06,$50
C200  FA                03099 	DB $FA
C201  18                03100 	DB $18
C202  F1                03101 	DB $F1
C203  FA                03102 	DB $FA
C204  F5                03103 	DB $F5
C205  FB                03104 	DB $FB
C206  06                03105 	DB $06
C207  50                03106 	DB $50
C208                    03107 	; 	DATA BYTE $80,$10,$e9,$02,$05,$0a,$10,$10
C208  80                03108 	DB $80
C209  10                03109 	DB $10
C20A  E9                03110 	DB $E9
C20B  02                03111 	DB $02
C20C  05                03112 	DB $05
C20D  0A                03113 	DB $0A
C20E  10                03114 	DB $10
C20F  10                03115 	DB $10
C210                    03116 	; 	DATA BYTE $80,$00,$01,$f0,$c0,$80,$11,$7f
C210  80                03117 	DB $80
C211  00                03118 	DB $00
C212  01                03119 	DB $01
C213  F0                03120 	DB $F0
C214  C0                03121 	DB $C0
C215  80                03122 	DB $80
C216  11                03123 	DB $11
C217  7F                03124 	DB $7F
C218                    03125 	; 	DATA BYTE $0a,$15,$01,$1f,$3f,$35,$11,$8a
C218  0A                03126 	DB $0A
C219  15                03127 	DB $15
C21A  01                03128 	DB $01
C21B  1F                03129 	DB $1F
C21C  3F                03130 	DB $3F
C21D  35                03131 	DB $35
C21E  11                03132 	DB $11
C21F  8A                03133 	DB $8A
C220                    03134 	; 	DATA BYTE $0c,$8d,$ab,$57,$ac,$25,$05,$27
C220  0C                03135 	DB $0C
C221  8D                03136 	DB $8D
C222  AB                03137 	DB $AB
C223  57                03138 	DB $57
C224  AC                03139 	DB $AC
C225  25                03140 	DB $25
C226  05                03141 	DB $05
C227  27                03142 	DB $27
C228                    03143 	; 	DATA BYTE $08,$45,$a8,$44,$00,$01,$01,$8a
C228  08                03144 	DB $08
C229  45                03145 	DB $45
C22A  A8                03146 	DB $A8
C22B  44                03147 	DB $44
C22C  00                03148 	DB $00
C22D  01                03149 	DB $01
C22E  01                03150 	DB $01
C22F  8A                03151 	DB $8A
C230                    03152 	; 	DATA BYTE $05,$01,$2a,$0a,$82,$54,$51,$a0
C230  05                03153 	DB $05
C231  01                03154 	DB $01
C232  2A                03155 	DB $2A
C233  0A                03156 	DB $0A
C234  82                03157 	DB $82
C235  54                03158 	DB $54
C236  51                03159 	DB $51
C237  A0                03160 	DB $A0
C238                    03161 	; 	DATA BYTE $21,$5d,$0a,$45,$a7,$2b,$07,$a2
C238  21                03162 	DB $21
C239  5D                03163 	DB $5D
C23A  0A                03164 	DB $0A
C23B  45                03165 	DB $45
C23C  A7                03166 	DB $A7
C23D  2B                03167 	DB $2B
C23E  07                03168 	DB $07
C23F  A2                03169 	DB $A2
C240                    03170 	; 	DATA BYTE $22,$0b,$11,$63,$37,$77,$e2,$01
C240  22                03171 	DB $22
C241  0B                03172 	DB $0B
C242  11                03173 	DB $11
C243  63                03174 	DB $63
C244  37                03175 	DB $37
C245  77                03176 	DB $77
C246  E2                03177 	DB $E2
C247  01                03178 	DB $01
C248                    03179 	; 	DATA BYTE $02,$55,$e0,$1e,$a3,$22,$e5,$ea
C248  02                03180 	DB $02
C249  55                03181 	DB $55
C24A  E0                03182 	DB $E0
C24B  1E                03183 	DB $1E
C24C  A3                03184 	DB $A3
C24D  22                03185 	DB $22
C24E  E5                03186 	DB $E5
C24F  EA                03187 	DB $EA
C250                    03188 	; 	DATA BYTE $5d,$01,$c6,$ee,$fc,$3e,$0a,$0a
C250  5D                03189 	DB $5D
C251  01                03190 	DB $01
C252  C6                03191 	DB $C6
C253  EE                03192 	DB $EE
C254  FC                03193 	DB $FC
C255  3E                03194 	DB $3E
C256  0A                03195 	DB $0A
C257  0A                03196 	DB $0A
C258                    03197 	; 	DATA BYTE $0c,$06,$b2,$11,$01,$7f,$bf,$9f
C258  0C                03198 	DB $0C
C259  06                03199 	DB $06
C25A  B2                03200 	DB $B2
C25B  11                03201 	DB $11
C25C  01                03202 	DB $01
C25D  7F                03203 	DB $7F
C25E  BF                03204 	DB $BF
C25F  9F                03205 	DB $9F
C260                    03206 	; 	DATA BYTE $02,$d0,$e8,$d5,$ff,$14,$f1,$00
C260  02                03207 	DB $02
C261  D0                03208 	DB $D0
C262  E8                03209 	DB $E8
C263  D5                03210 	DB $D5
C264  FF                03211 	DB $FF
C265  14                03212 	DB $14
C266  F1                03213 	DB $F1
C267  00                03214 	DB $00
C268                    03215 	; 	DATA BYTE $67,$55,$82,$55,$f0,$ab,$f0,$01
C268  67                03216 	DB $67
C269  55                03217 	DB $55
C26A  82                03218 	DB $82
C26B  55                03219 	DB $55
C26C  F0                03220 	DB $F0
C26D  AB                03221 	DB $AB
C26E  F0                03222 	DB $F0
C26F  01                03223 	DB $01
C270                    03224 	; 	DATA BYTE $20,$50,$c2,$b5,$d0,$00,$08,$40
C270  20                03225 	DB $20
C271  50                03226 	DB $50
C272  C2                03227 	DB $C2
C273  B5                03228 	DB $B5
C274  D0                03229 	DB $D0
C275  00                03230 	DB $00
C276  08                03231 	DB $08
C277  40                03232 	DB $40
C278                    03233 	; 	DATA BYTE $e0,$01,$88,$41,$14,$55,$83,$fb
C278  E0                03234 	DB $E0
C279  01                03235 	DB $01
C27A  88                03236 	DB $88
C27B  41                03237 	DB $41
C27C  14                03238 	DB $14
C27D  55                03239 	DB $55
C27E  83                03240 	DB $83
C27F  FB                03241 	DB $FB
C280                    03242 	; 	DATA BYTE $28,$01,$23,$99,$f0,$ee,$04,$9f
C280  28                03243 	DB $28
C281  01                03244 	DB $01
C282  23                03245 	DB $23
C283  99                03246 	DB $99
C284  F0                03247 	DB $F0
C285  EE                03248 	DB $EE
C286  04                03249 	DB $04
C287  9F                03250 	DB $9F
C288                    03251 	; 	DATA BYTE $cf,$fe,$d7,$b1,$af,$20,$78,$00
C288  CF                03252 	DB $CF
C289  FE                03253 	DB $FE
C28A  D7                03254 	DB $D7
C28B  B1                03255 	DB $B1
C28C  AF                03256 	DB $AF
C28D  20                03257 	DB $20
C28E  78                03258 	DB $78
C28F  00                03259 	DB $00
C290                    03260 	; 	DATA BYTE $0f,$5f,$af,$07,$ef,$00,$e0,$fb
C290  0F                03261 	DB $0F
C291  5F                03262 	DB $5F
C292  AF                03263 	DB $AF
C293  07                03264 	DB $07
C294  EF                03265 	DB $EF
C295  00                03266 	DB $00
C296  E0                03267 	DB $E0
C297  FB                03268 	DB $FB
C298                    03269 	; 	DATA BYTE $3a,$e0,$c0,$00,$ff,$33,$ae,$d5
C298  3A                03270 	DB $3A
C299  E0                03271 	DB $E0
C29A  C0                03272 	DB $C0
C29B  00                03273 	DB $00
C29C  FF                03274 	DB $FF
C29D  33                03275 	DB $33
C29E  AE                03276 	DB $AE
C29F  D5                03277 	DB $D5
C2A0                    03278 	; 	DATA BYTE $0f,$01,$fd,$ef,$3c,$57,$01,$02
C2A0  0F                03279 	DB $0F
C2A1  01                03280 	DB $01
C2A2  FD                03281 	DB $FD
C2A3  EF                03282 	DB $EF
C2A4  3C                03283 	DB $3C
C2A5  57                03284 	DB $57
C2A6  01                03285 	DB $01
C2A7  02                03286 	DB $02
C2A8                    03287 	; 	DATA BYTE $50,$a2,$41,$8f,$1e,$be,$93,$40
C2A8  50                03288 	DB $50
C2A9  A2                03289 	DB $A2
C2AA  41                03290 	DB $41
C2AB  8F                03291 	DB $8F
C2AC  1E                03292 	DB $1E
C2AD  BE                03293 	DB $BE
C2AE  93                03294 	DB $93
C2AF  40                03295 	DB $40
C2B0                    03296 	; 	DATA BYTE $f7,$eb,$e7,$af,$00,$5f,$eb,$dd
C2B0  F7                03297 	DB $F7
C2B1  EB                03298 	DB $EB
C2B2  E7                03299 	DB $E7
C2B3  AF                03300 	DB $AF
C2B4  00                03301 	DB $00
C2B5  5F                03302 	DB $5F
C2B6  EB                03303 	DB $EB
C2B7  DD                03304 	DB $DD
C2B8                    03305 	; 	DATA BYTE $eb,$cd,$eb,$ed,$aa,$25,$e3,$c8
C2B8  EB                03306 	DB $EB
C2B9  CD                03307 	DB $CD
C2BA  EB                03308 	DB $EB
C2BB  ED                03309 	DB $ED
C2BC  AA                03310 	DB $AA
C2BD  25                03311 	DB $25
C2BE  E3                03312 	DB $E3
C2BF  C8                03313 	DB $C8
C2C0                    03314 	; 	DATA BYTE $8d,$c2,$9f,$11,$28,$ff,$28,$e5
C2C0  8D                03315 	DB $8D
C2C1  C2                03316 	DB $C2
C2C2  9F                03317 	DB $9F
C2C3  11                03318 	DB $11
C2C4  28                03319 	DB $28
C2C5  FF                03320 	DB $FF
C2C6  28                03321 	DB $28
C2C7  E5                03322 	DB $E5
C2C8                    03323 	; 	DATA BYTE $08,$0c,$1c,$0c,$d3,$0e,$ff,$50
C2C8  08                03324 	DB $08
C2C9  0C                03325 	DB $0C
C2CA  1C                03326 	DB $1C
C2CB  0C                03327 	DB $0C
C2CC  D3                03328 	DB $D3
C2CD  0E                03329 	DB $0E
C2CE  FF                03330 	DB $FF
C2CF  50                03331 	DB $50
C2D0                    03332 	; 	DATA BYTE $2b,$67,$2a,$01,$cc,$37,$bf,$eb
C2D0  2B                03333 	DB $2B
C2D1  67                03334 	DB $67
C2D2  2A                03335 	DB $2A
C2D3  01                03336 	DB $01
C2D4  CC                03337 	DB $CC
C2D5  37                03338 	DB $37
C2D6  BF                03339 	DB $BF
C2D7  EB                03340 	DB $EB
C2D8                    03341 	; 	DATA BYTE $18,$f9,$0c,$ab,$df,$d8,$18,$dd
C2D8  18                03342 	DB $18
C2D9  F9                03343 	DB $F9
C2DA  0C                03344 	DB $0C
C2DB  AB                03345 	DB $AB
C2DC  DF                03346 	DB $DF
C2DD  D8                03347 	DB $D8
C2DE  18                03348 	DB $18
C2DF  DD                03349 	DB $DD
C2E0                    03350 	; 	DATA BYTE $00,$54,$aa,$14,$a2,$05,$a0,$60
C2E0  00                03351 	DB $00
C2E1  54                03352 	DB $54
C2E2  AA                03353 	DB $AA
C2E3  14                03354 	DB $14
C2E4  A2                03355 	DB $A2
C2E5  05                03356 	DB $05
C2E6  A0                03357 	DB $A0
C2E7  60                03358 	DB $60
C2E8                    03359 	; 	DATA BYTE $d0,$a3,$a4,$01,$95,$94,$8f,$0a
C2E8  D0                03360 	DB $D0
C2E9  A3                03361 	DB $A3
C2EA  A4                03362 	DB $A4
C2EB  01                03363 	DB $01
C2EC  95                03364 	DB $95
C2ED  94                03365 	DB $94
C2EE  8F                03366 	DB $8F
C2EF  0A                03367 	DB $0A
C2F0                    03368 	; 	DATA BYTE $04,$28,$28,$55,$11,$af,$81,$0a
C2F0  04                03369 	DB $04
C2F1  28                03370 	DB $28
C2F2  28                03371 	DB $28
C2F3  55                03372 	DB $55
C2F4  11                03373 	DB $11
C2F5  AF                03374 	DB $AF
C2F6  81                03375 	DB $81
C2F7  0A                03376 	DB $0A
C2F8                    03377 	; 	DATA BYTE $05,$08,$14,$8a,$08,$0e,$40,$82
C2F8  05                03378 	DB $05
C2F9  08                03379 	DB $08
C2FA  14                03380 	DB $14
C2FB  8A                03381 	DB $8A
C2FC  08                03382 	DB $08
C2FD  0E                03383 	DB $0E
C2FE  40                03384 	DB $40
C2FF  82                03385 	DB $82
C300                    03386 	; 	DATA BYTE $41,$cf,$00,$22,$41,$02,$01,$22
C300  41                03387 	DB $41
C301  CF                03388 	DB $CF
C302  00                03389 	DB $00
C303  22                03390 	DB $22
C304  41                03391 	DB $41
C305  02                03392 	DB $02
C306  01                03393 	DB $01
C307  22                03394 	DB $22
C308                    03395 	; 	DATA BYTE $45,$69,$22,$3b,$16,$fb,$10,$fd
C308  45                03396 	DB $45
C309  69                03397 	DB $69
C30A  22                03398 	DB $22
C30B  3B                03399 	DB $3B
C30C  16                03400 	DB $16
C30D  FB                03401 	DB $FB
C30E  10                03402 	DB $10
C30F  FD                03403 	DB $FD
C310                    03404 	; 	DATA BYTE $51,$80,$03,$0e,$08,$7d,$2a,$15
C310  51                03405 	DB $51
C311  80                03406 	DB $80
C312  03                03407 	DB $03
C313  0E                03408 	DB $0E
C314  08                03409 	DB $08
C315  7D                03410 	DB $7D
C316  2A                03411 	DB $2A
C317  15                03412 	DB $15
C318                    03413 	; 	DATA BYTE $51,$9e,$bf,$01,$66,$af,$07,$81
C318  51                03414 	DB $51
C319  9E                03415 	DB $9E
C31A  BF                03416 	DB $BF
C31B  01                03417 	DB $01
C31C  66                03418 	DB $66
C31D  AF                03419 	DB $AF
C31E  07                03420 	DB $07
C31F  81                03421 	DB $81
C320                    03422 	; 	DATA BYTE $ac,$a6,$07,$c3,$63,$0c,$06,$03
C320  AC                03423 	DB $AC
C321  A6                03424 	DB $A6
C322  07                03425 	DB $07
C323  C3                03426 	DB $C3
C324  63                03427 	DB $63
C325  0C                03428 	DB $0C
C326  06                03429 	DB $06
C327  03                03430 	DB $03
C328                    03431 	; 	DATA BYTE $4a,$09,$0f,$c1,$32,$20,$10,$23
C328  4A                03432 	DB $4A
C329  09                03433 	DB $09
C32A  0F                03434 	DB $0F
C32B  C1                03435 	DB $C1
C32C  32                03436 	DB $32
C32D  20                03437 	DB $20
C32E  10                03438 	DB $10
C32F  23                03439 	DB $23
C330                    03440 	; 	DATA BYTE $31,$08,$41,$01,$01,$0c,$9f,$ff
C330  31                03441 	DB $31
C331  08                03442 	DB $08
C332  41                03443 	DB $41
C333  01                03444 	DB $01
C334  01                03445 	DB $01
C335  0C                03446 	DB $0C
C336  9F                03447 	DB $9F
C337  FF                03448 	DB $FF
C338                    03449 	; 	DATA BYTE $11,$01,$04,$55,$08,$29,$c7,$c7
C338  11                03450 	DB $11
C339  01                03451 	DB $01
C33A  04                03452 	DB $04
C33B  55                03453 	DB $55
C33C  08                03454 	DB $08
C33D  29                03455 	DB $29
C33E  C7                03456 	DB $C7
C33F  C7                03457 	DB $C7
C340                    03458 	; 	DATA BYTE $cf,$81,$51,$5f,$1f,$78,$7c,$07
C340  CF                03459 	DB $CF
C341  81                03460 	DB $81
C342  51                03461 	DB $51
C343  5F                03462 	DB $5F
C344  1F                03463 	DB $1F
C345  78                03464 	DB $78
C346  7C                03465 	DB $7C
C347  07                03466 	DB $07
C348                    03467 	; 	DATA BYTE $01,$38,$0c,$2c,$04,$03,$fb,$03
C348  01                03468 	DB $01
C349  38                03469 	DB $38
C34A  0C                03470 	DB $0C
C34B  2C                03471 	DB $2C
C34C  04                03472 	DB $04
C34D  03                03473 	DB $03
C34E  FB                03474 	DB $FB
C34F  03                03475 	DB $03
C350                    03476 	; 	DATA BYTE $f1,$8f,$53,$fc,$f4,$10,$f4,$80
C350  F1                03477 	DB $F1
C351  8F                03478 	DB $8F
C352  53                03479 	DB $53
C353  FC                03480 	DB $FC
C354  F4                03481 	DB $F4
C355  10                03482 	DB $10
C356  F4                03483 	DB $F4
C357  80                03484 	DB $80
C358                    03485 	; 	DATA BYTE $fb,$73,$47,$f1,$e9,$13,$ec,$30
C358  FB                03486 	DB $FB
C359  73                03487 	DB $73
C35A  47                03488 	DB $47
C35B  F1                03489 	DB $F1
C35C  E9                03490 	DB $E9
C35D  13                03491 	DB $13
C35E  EC                03492 	DB $EC
C35F  30                03493 	DB $30
C360                    03494 	; 	DATA BYTE $d9,$a0,$b3,$23,$10,$a0,$e6,$90
C360  D9                03495 	DB $D9
C361  A0                03496 	DB $A0
C362  B3                03497 	DB $B3
C363  23                03498 	DB $23
C364  10                03499 	DB $10
C365  A0                03500 	DB $A0
C366  E6                03501 	DB $E6
C367  90                03502 	DB $90
C368                    03503 	; 	DATA BYTE $c6,$15,$09,$23,$3d,$af,$89,$00
C368  C6                03504 	DB $C6
C369  15                03505 	DB $15
C36A  09                03506 	DB $09
C36B  23                03507 	DB $23
C36C  3D                03508 	DB $3D
C36D  AF                03509 	DB $AF
C36E  89                03510 	DB $89
C36F  00                03511 	DB $00
C370                    03512 	; 	DATA BYTE $03,$fb,$f7,$fb,$f5,$eb,$e5,$e9
C370  03                03513 	DB $03
C371  FB                03514 	DB $FB
C372  F7                03515 	DB $F7
C373  FB                03516 	DB $FB
C374  F5                03517 	DB $F5
C375  EB                03518 	DB $EB
C376  E5                03519 	DB $E5
C377  E9                03520 	DB $E9
C378                    03521 	; 	DATA BYTE $31,$c1,$80,$00,$e0,$e2,$00,$0c
C378  31                03522 	DB $31
C379  C1                03523 	DB $C1
C37A  80                03524 	DB $80
C37B  00                03525 	DB $00
C37C  E0                03526 	DB $E0
C37D  E2                03527 	DB $E2
C37E  00                03528 	DB $00
C37F  0C                03529 	DB $0C
C380                    03530 	; 	DATA BYTE $00,$c0,$c3,$98,$87,$ab,$55,$98
C380  00                03531 	DB $00
C381  C0                03532 	DB $C0
C382  C3                03533 	DB $C3
C383  98                03534 	DB $98
C384  87                03535 	DB $87
C385  AB                03536 	DB $AB
C386  55                03537 	DB $55
C387  98                03538 	DB $98
C388                    03539 	; 	DATA BYTE $01,$7f,$00,$ea,$47,$f5,$93,$0a
C388  01                03540 	DB $01
C389  7F                03541 	DB $7F
C38A  00                03542 	DB $00
C38B  EA                03543 	DB $EA
C38C  47                03544 	DB $47
C38D  F5                03545 	DB $F5
C38E  93                03546 	DB $93
C38F  0A                03547 	DB $0A
C390                    03548 	; 	DATA BYTE $eb,$eb,$ef,$43,$f8,$e0,$40,$9f
C390  EB                03549 	DB $EB
C391  EB                03550 	DB $EB
C392  EF                03551 	DB $EF
C393  43                03552 	DB $43
C394  F8                03553 	DB $F8
C395  E0                03554 	DB $E0
C396  40                03555 	DB $40
C397  9F                03556 	DB $9F
C398                    03557 	; 	DATA BYTE $10,$38,$71,$f8,$01,$cd,$cd,$75
C398  10                03558 	DB $10
C399  38                03559 	DB $38
C39A  71                03560 	DB $71
C39B  F8                03561 	DB $F8
C39C  01                03562 	DB $01
C39D  CD                03563 	DB $CD
C39E  CD                03564 	DB $CD
C39F  75                03565 	DB $75
C3A0                    03566 	; 	DATA BYTE $d8,$ad,$24,$af,$96,$8d,$d1,$32
C3A0  D8                03567 	DB $D8
C3A1  AD                03568 	DB $AD
C3A2  24                03569 	DB $24
C3A3  AF                03570 	DB $AF
C3A4  96                03571 	DB $96
C3A5  8D                03572 	DB $8D
C3A6  D1                03573 	DB $D1
C3A7  32                03574 	DB $32
C3A8                    03575 	; 	DATA BYTE $ea,$d4,$25,$60,$00,$f3,$41,$a7
C3A8  EA                03576 	DB $EA
C3A9  D4                03577 	DB $D4
C3AA  25                03578 	DB $25
C3AB  60                03579 	DB $60
C3AC  00                03580 	DB $00
C3AD  F3                03581 	DB $F3
C3AE  41                03582 	DB $41
C3AF  A7                03583 	DB $A7
C3B0                    03584 	; 	DATA BYTE $30,$04,$08,$08,$82,$40,$06,$0a
C3B0  30                03585 	DB $30
C3B1  04                03586 	DB $04
C3B2  08                03587 	DB $08
C3B3  08                03588 	DB $08
C3B4  82                03589 	DB $82
C3B5  40                03590 	DB $40
C3B6  06                03591 	DB $06
C3B7  0A                03592 	DB $0A
C3B8                    03593 	; 	DATA BYTE $01,$28,$05,$20,$24,$bd,$13,$8a
C3B8  01                03594 	DB $01
C3B9  28                03595 	DB $28
C3BA  05                03596 	DB $05
C3BB  20                03597 	DB $20
C3BC  24                03598 	DB $24
C3BD  BD                03599 	DB $BD
C3BE  13                03600 	DB $13
C3BF  8A                03601 	DB $8A
C3C0                    03602 	; 	DATA BYTE $43,$51,$99,$ce,$af,$03,$83,$a6
C3C0  43                03603 	DB $43
C3C1  51                03604 	DB $51
C3C2  99                03605 	DB $99
C3C3  CE                03606 	DB $CE
C3C4  AF                03607 	DB $AF
C3C5  03                03608 	DB $03
C3C6  83                03609 	DB $83
C3C7  A6                03610 	DB $A6
C3C8                    03611 	; 	DATA BYTE $9d,$e7,$3f,$6b,$37,$b2,$01,$af
C3C8  9D                03612 	DB $9D
C3C9  E7                03613 	DB $E7
C3CA  3F                03614 	DB $3F
C3CB  6B                03615 	DB $6B
C3CC  37                03616 	DB $37
C3CD  B2                03617 	DB $B2
C3CE  01                03618 	DB $01
C3CF  AF                03619 	DB $AF
C3D0                    03620 	; 	DATA BYTE $e7,$1d,$10,$07,$08,$ba,$42,$a9
C3D0  E7                03621 	DB $E7
C3D1  1D                03622 	DB $1D
C3D2  10                03623 	DB $10
C3D3  07                03624 	DB $07
C3D4  08                03625 	DB $08
C3D5  BA                03626 	DB $BA
C3D6  42                03627 	DB $42
C3D7  A9                03628 	DB $A9
C3D8                    03629 	; 	DATA BYTE $8f,$10,$cf,$c7,$ff,$fb,$0b,$05
C3D8  8F                03630 	DB $8F
C3D9  10                03631 	DB $10
C3DA  CF                03632 	DB $CF
C3DB  C7                03633 	DB $C7
C3DC  FF                03634 	DB $FF
C3DD  FB                03635 	DB $FB
C3DE  0B                03636 	DB $0B
C3DF  05                03637 	DB $05
C3E0                    03638 	; 	DATA BYTE $ff,$01,$03,$e2,$1f,$04,$3f,$be
C3E0  FF                03639 	DB $FF
C3E1  01                03640 	DB $01
C3E2  03                03641 	DB $03
C3E3  E2                03642 	DB $E2
C3E4  1F                03643 	DB $1F
C3E5  04                03644 	DB $04
C3E6  3F                03645 	DB $3F
C3E7  BE                03646 	DB $BE
C3E8                    03647 	; 	DATA BYTE $14,$bf,$0f,$bf,$25,$2b,$07,$90
C3E8  14                03648 	DB $14
C3E9  BF                03649 	DB $BF
C3EA  0F                03650 	DB $0F
C3EB  BF                03651 	DB $BF
C3EC  25                03652 	DB $25
C3ED  2B                03653 	DB $2B
C3EE  07                03654 	DB $07
C3EF  90                03655 	DB $90
C3F0                    03656 	; 	DATA BYTE $35,$23,$17,$82,$ff,$c3,$60,$e2
C3F0  35                03657 	DB $35
C3F1  23                03658 	DB $23
C3F2  17                03659 	DB $17
C3F3  82                03660 	DB $82
C3F4  FF                03661 	DB $FF
C3F5  C3                03662 	DB $C3
C3F6  60                03663 	DB $60
C3F7  E2                03664 	DB $E2
C3F8                    03665 	; 	DATA BYTE $f5,$f0,$f1,$81,$05,$e7,$ef,$aa
C3F8  F5                03666 	DB $F5
C3F9  F0                03667 	DB $F0
C3FA  F1                03668 	DB $F1
C3FB  81                03669 	DB $81
C3FC  05                03670 	DB $05
C3FD  E7                03671 	DB $E7
C3FE  EF                03672 	DB $EF
C3FF  AA                03673 	DB $AA
C400                    03674 	; 	DATA BYTE $cf,$cf,$d0,$8b,$fe,$29,$aa,$fe
C400  CF                03675 	DB $CF
C401  CF                03676 	DB $CF
C402  D0                03677 	DB $D0
C403  8B                03678 	DB $8B
C404  FE                03679 	DB $FE
C405  29                03680 	DB $29
C406  AA                03681 	DB $AA
C407  FE                03682 	DB $FE
C408                    03683 	; 	DATA BYTE $00,$f3,$f1,$ab,$21,$c5,$06,$15
C408  00                03684 	DB $00
C409  F3                03685 	DB $F3
C40A  F1                03686 	DB $F1
C40B  AB                03687 	DB $AB
C40C  21                03688 	DB $21
C40D  C5                03689 	DB $C5
C40E  06                03690 	DB $06
C40F  15                03691 	DB $15
C410                    03692 	; 	DATA BYTE $4d,$cd,$3d,$3d,$cc,$d9,$f3,$01
C410  4D                03693 	DB $4D
C411  CD                03694 	DB $CD
C412  3D                03695 	DB $3D
C413  3D                03696 	DB $3D
C414  CC                03697 	DB $CC
C415  D9                03698 	DB $D9
C416  F3                03699 	DB $F3
C417  01                03700 	DB $01
C418                    03701 	; 	DATA BYTE $e5,$c7,$c3,$c2,$c2,$e2,$51,$83
C418  E5                03702 	DB $E5
C419  C7                03703 	DB $C7
C41A  C3                03704 	DB $C3
C41B  C2                03705 	DB $C2
C41C  C2                03706 	DB $C2
C41D  E2                03707 	DB $E2
C41E  51                03708 	DB $51
C41F  83                03709 	DB $83
C420                    03710 	; 	DATA BYTE $a7,$c6,$a8,$c8,$08,$60,$71,$70
C420  A7                03711 	DB $A7
C421  C6                03712 	DB $C6
C422  A8                03713 	DB $A8
C423  C8                03714 	DB $C8
C424  08                03715 	DB $08
C425  60                03716 	DB $60
C426  71                03717 	DB $71
C427  70                03718 	DB $70
C428                    03719 	; 	DATA BYTE $51,$f5,$c2,$60,$40,$ce,$00,$f3
C428  51                03720 	DB $51
C429  F5                03721 	DB $F5
C42A  C2                03722 	DB $C2
C42B  60                03723 	DB $60
C42C  40                03724 	DB $40
C42D  CE                03725 	DB $CE
C42E  00                03726 	DB $00
C42F  F3                03727 	DB $F3
C430                    03728 	; 	DATA BYTE $6e,$e3,$58,$f9,$1d,$2a,$d7,$04
C430  6E                03729 	DB $6E
C431  E3                03730 	DB $E3
C432  58                03731 	DB $58
C433  F9                03732 	DB $F9
C434  1D                03733 	DB $1D
C435  2A                03734 	DB $2A
C436  D7                03735 	DB $D7
C437  04                03736 	DB $04
C438                    03737 	; 	DATA BYTE $15,$ae,$91,$af,$51,$88,$73,$2a
C438  15                03738 	DB $15
C439  AE                03739 	DB $AE
C43A  91                03740 	DB $91
C43B  AF                03741 	DB $AF
C43C  51                03742 	DB $51
C43D  88                03743 	DB $88
C43E  73                03744 	DB $73
C43F  2A                03745 	DB $2A
C440                    03746 	; 	DATA BYTE $01,$03,$b8,$1c,$18,$3c,$1c,$3e
C440  01                03747 	DB $01
C441  03                03748 	DB $03
C442  B8                03749 	DB $B8
C443  1C                03750 	DB $1C
C444  18                03751 	DB $18
C445  3C                03752 	DB $3C
C446  1C                03753 	DB $1C
C447  3E                03754 	DB $3E
C448                    03755 	; 	DATA BYTE $01,$fe,$f0,$b7,$98,$fc,$e5,$f1
C448  01                03756 	DB $01
C449  FE                03757 	DB $FE
C44A  F0                03758 	DB $F0
C44B  B7                03759 	DB $B7
C44C  98                03760 	DB $98
C44D  FC                03761 	DB $FC
C44E  E5                03762 	DB $E5
C44F  F1                03763 	DB $F1
C450                    03764 	; 	DATA BYTE $01,$a8,$54,$12,$ad,$e0,$dd,$11
C450  01                03765 	DB $01
C451  A8                03766 	DB $A8
C452  54                03767 	DB $54
C453  12                03768 	DB $12
C454  AD                03769 	DB $AD
C455  E0                03770 	DB $E0
C456  DD                03771 	DB $DD
C457  11                03772 	DB $11
C458                    03773 	; 	DATA BYTE $f5,$a2,$d5,$86,$89,$3b,$60,$1f
C458  F5                03774 	DB $F5
C459  A2                03775 	DB $A2
C45A  D5                03776 	DB $D5
C45B  86                03777 	DB $86
C45C  89                03778 	DB $89
C45D  3B                03779 	DB $3B
C45E  60                03780 	DB $60
C45F  1F                03781 	DB $1F
C460                    03782 	; 	DATA BYTE $bb,$d0,$2b,$99,$f4,$e0,$ce,$17
C460  BB                03783 	DB $BB
C461  D0                03784 	DB $D0
C462  2B                03785 	DB $2B
C463  99                03786 	DB $99
C464  F4                03787 	DB $F4
C465  E0                03788 	DB $E0
C466  CE                03789 	DB $CE
C467  17                03790 	DB $17
C468                    03791 	; 	DATA BYTE $00,$00,$72,$80,$c3,$ec,$f9,$5b
C468  00                03792 	DB $00
C469  00                03793 	DB $00
C46A  72                03794 	DB $72
C46B  80                03795 	DB $80
C46C  C3                03796 	DB $C3
C46D  EC                03797 	DB $EC
C46E  F9                03798 	DB $F9
C46F  5B                03799 	DB $5B
C470                    03800 	; 	DATA BYTE $ec,$01,$c7,$62,$e3,$00,$e1,$00
C470  EC                03801 	DB $EC
C471  01                03802 	DB $01
C472  C7                03803 	DB $C7
C473  62                03804 	DB $62
C474  E3                03805 	DB $E3
C475  00                03806 	DB $00
C476  E1                03807 	DB $E1
C477  00                03808 	DB $00
C478                    03809 	; 	DATA BYTE $82,$fb,$eb,$1d,$45,$9f,$50,$cf
C478  82                03810 	DB $82
C479  FB                03811 	DB $FB
C47A  EB                03812 	DB $EB
C47B  1D                03813 	DB $1D
C47C  45                03814 	DB $45
C47D  9F                03815 	DB $9F
C47E  50                03816 	DB $50
C47F  CF                03817 	DB $CF
C480                    03818 	; 	DATA BYTE $03,$f9,$54,$c3,$c3,$a0,$09,$fd
C480  03                03819 	DB $03
C481  F9                03820 	DB $F9
C482  54                03821 	DB $54
C483  C3                03822 	DB $C3
C484  C3                03823 	DB $C3
C485  A0                03824 	DB $A0
C486  09                03825 	DB $09
C487  FD                03826 	DB $FD
C488                    03827 	; 	DATA BYTE $3b,$17,$0b,$03,$58,$ff,$15,$f0
C488  3B                03828 	DB $3B
C489  17                03829 	DB $17
C48A  0B                03830 	DB $0B
C48B  03                03831 	DB $03
C48C  58                03832 	DB $58
C48D  FF                03833 	DB $FF
C48E  15                03834 	DB $15
C48F  F0                03835 	DB $F0
C490                    03836 	; 	DATA BYTE $00,$03,$06,$d0,$44,$25,$f1,$f3
C490  00                03837 	DB $00
C491  03                03838 	DB $03
C492  06                03839 	DB $06
C493  D0                03840 	DB $D0
C494  44                03841 	DB $44
C495  25                03842 	DB $25
C496  F1                03843 	DB $F1
C497  F3                03844 	DB $F3
C498                    03845 	; 	DATA BYTE $24,$a2,$c5,$b1,$99,$de,$03,$8f
C498  24                03846 	DB $24
C499  A2                03847 	DB $A2
C49A  C5                03848 	DB $C5
C49B  B1                03849 	DB $B1
C49C  99                03850 	DB $99
C49D  DE                03851 	DB $DE
C49E  03                03852 	DB $03
C49F  8F                03853 	DB $8F
C4A0                    03854 	; 	DATA BYTE $af,$c0,$f3,$e8,$b2,$18,$c5,$b0
C4A0  AF                03855 	DB $AF
C4A1  C0                03856 	DB $C0
C4A2  F3                03857 	DB $F3
C4A3  E8                03858 	DB $E8
C4A4  B2                03859 	DB $B2
C4A5  18                03860 	DB $18
C4A6  C5                03861 	DB $C5
C4A7  B0                03862 	DB $B0
C4A8                    03863 	; 	DATA BYTE $d7,$d0,$00,$89,$88,$a2,$40,$a2
C4A8  D7                03864 	DB $D7
C4A9  D0                03865 	DB $D0
C4AA  00                03866 	DB $00
C4AB  89                03867 	DB $89
C4AC  88                03868 	DB $88
C4AD  A2                03869 	DB $A2
C4AE  40                03870 	DB $40
C4AF  A2                03871 	DB $A2
C4B0                    03872 	; 	DATA BYTE $a3,$20,$d9,$31,$15,$aa,$c3,$88
C4B0  A3                03873 	DB $A3
C4B1  20                03874 	DB $20
C4B2  D9                03875 	DB $D9
C4B3  31                03876 	DB $31
C4B4  15                03877 	DB $15
C4B5  AA                03878 	DB $AA
C4B6  C3                03879 	DB $C3
C4B7  88                03880 	DB $88
C4B8                    03881 	; 	DATA BYTE $aa,$0c,$cf,$02,$00,$41,$a0,$10
C4B8  AA                03882 	DB $AA
C4B9  0C                03883 	DB $0C
C4BA  CF                03884 	DB $CF
C4BB  02                03885 	DB $02
C4BC  00                03886 	DB $00
C4BD  41                03887 	DB $41
C4BE  A0                03888 	DB $A0
C4BF  10                03889 	DB $10
C4C0                    03890 	; 	DATA BYTE $91,$31,$0a,$5f,$01,$59,$e3,$1f
C4C0  91                03891 	DB $91
C4C1  31                03892 	DB $31
C4C2  0A                03893 	DB $0A
C4C3  5F                03894 	DB $5F
C4C4  01                03895 	DB $01
C4C5  59                03896 	DB $59
C4C6  E3                03897 	DB $E3
C4C7  1F                03898 	DB $1F
C4C8                    03899 	; 	DATA BYTE $28,$2a,$d9,$fc,$d5,$20,$e0,$70
C4C8  28                03900 	DB $28
C4C9  2A                03901 	DB $2A
C4CA  D9                03902 	DB $D9
C4CB  FC                03903 	DB $FC
C4CC  D5                03904 	DB $D5
C4CD  20                03905 	DB $20
C4CE  E0                03906 	DB $E0
C4CF  70                03907 	DB $70
C4D0                    03908 	; 	DATA BYTE $60,$70,$36,$20,$78,$85,$08,$90
C4D0  60                03909 	DB $60
C4D1  70                03910 	DB $70
C4D2  36                03911 	DB $36
C4D3  20                03912 	DB $20
C4D4  78                03913 	DB $78
C4D5  85                03914 	DB $85
C4D6  08                03915 	DB $08
C4D7  90                03916 	DB $90
C4D8                    03917 	; 	DATA BYTE $71,$ed,$91,$bc,$a5,$c5,$57,$0e
C4D8  71                03918 	DB $71
C4D9  ED                03919 	DB $ED
C4DA  91                03920 	DB $91
C4DB  BC                03921 	DB $BC
C4DC  A5                03922 	DB $A5
C4DD  C5                03923 	DB $C5
C4DE  57                03924 	DB $57
C4DF  0E                03925 	DB $0E
C4E0                    03926 	; 	DATA BYTE $1f,$01,$55,$b8,$00,$1a,$cd,$f8
C4E0  1F                03927 	DB $1F
C4E1  01                03928 	DB $01
C4E2  55                03929 	DB $55
C4E3  B8                03930 	DB $B8
C4E4  00                03931 	DB $00
C4E5  1A                03932 	DB $1A
C4E6  CD                03933 	DB $CD
C4E7  F8                03934 	DB $F8
C4E8                    03935 	; 	DATA BYTE $cf,$35,$80,$25,$dc,$57,$05,$0f
C4E8  CF                03936 	DB $CF
C4E9  35                03937 	DB $35
C4EA  80                03938 	DB $80
C4EB  25                03939 	DB $25
C4EC  DC                03940 	DB $DC
C4ED  57                03941 	DB $57
C4EE  05                03942 	DB $05
C4EF  0F                03943 	DB $0F
C4F0                    03944 	; 	DATA BYTE $c5,$14,$9f,$c5,$20,$57,$eb,$18
C4F0  C5                03945 	DB $C5
C4F1  14                03946 	DB $14
C4F2  9F                03947 	DB $9F
C4F3  C5                03948 	DB $C5
C4F4  20                03949 	DB $20
C4F5  57                03950 	DB $57
C4F6  EB                03951 	DB $EB
C4F7  18                03952 	DB $18
C4F8                    03953 	; 	DATA BYTE $e1,$e3,$00,$63,$63,$32,$fc,$ea
C4F8  E1                03954 	DB $E1
C4F9  E3                03955 	DB $E3
C4FA  00                03956 	DB $00
C4FB  63                03957 	DB $63
C4FC  63                03958 	DB $63
C4FD  32                03959 	DB $32
C4FE  FC                03960 	DB $FC
C4FF  EA                03961 	DB $EA
C500                    03962 	; 	DATA BYTE $f7,$ef,$f7,$46,$fa,$ce,$10,$c1
C500  F7                03963 	DB $F7
C501  EF                03964 	DB $EF
C502  F7                03965 	DB $F7
C503  46                03966 	DB $46
C504  FA                03967 	DB $FA
C505  CE                03968 	DB $CE
C506  10                03969 	DB $10
C507  C1                03970 	DB $C1
C508                    03971 	; 	DATA BYTE $db,$47,$81,$00,$83,$03,$05,$f9
C508  DB                03972 	DB $DB
C509  47                03973 	DB $47
C50A  81                03974 	DB $81
C50B  00                03975 	DB $00
C50C  83                03976 	DB $83
C50D  03                03977 	DB $03
C50E  05                03978 	DB $05
C50F  F9                03979 	DB $F9
C510                    03980 	; 	DATA BYTE $29,$0e,$a7,$23,$05,$40,$cb,$b8
C510  29                03981 	DB $29
C511  0E                03982 	DB $0E
C512  A7                03983 	DB $A7
C513  23                03984 	DB $23
C514  05                03985 	DB $05
C515  40                03986 	DB $40
C516  CB                03987 	DB $CB
C517  B8                03988 	DB $B8
C518                    03989 	; 	DATA BYTE $18,$55,$8f,$01,$a7,$cd,$68,$5f
C518  18                03990 	DB $18
C519  55                03991 	DB $55
C51A  8F                03992 	DB $8F
C51B  01                03993 	DB $01
C51C  A7                03994 	DB $A7
C51D  CD                03995 	DB $CD
C51E  68                03996 	DB $68
C51F  5F                03997 	DB $5F
C520                    03998 	; 	DATA BYTE $9b,$7c,$e5,$b6,$40,$96,$07,$ad
C520  9B                03999 	DB $9B
C521  7C                04000 	DB $7C
C522  E5                04001 	DB $E5
C523  B6                04002 	DB $B6
C524  40                04003 	DB $40
C525  96                04004 	DB $96
C526  07                04005 	DB $07
C527  AD                04006 	DB $AD
C528                    04007 	; 	DATA BYTE $b6,$00,$07,$20,$7f,$07,$f9,$69
C528  B6                04008 	DB $B6
C529  00                04009 	DB $00
C52A  07                04010 	DB $07
C52B  20                04011 	DB $20
C52C  7F                04012 	DB $7F
C52D  07                04013 	DB $07
C52E  F9                04014 	DB $F9
C52F  69                04015 	DB $69
C530                    04016 	; 	DATA BYTE $c1,$00,$80,$da,$01,$cd,$03,$66
C530  C1                04017 	DB $C1
C531  00                04018 	DB $00
C532  80                04019 	DB $80
C533  DA                04020 	DB $DA
C534  01                04021 	DB $01
C535  CD                04022 	DB $CD
C536  03                04023 	DB $03
C537  66                04024 	DB $66
C538                    04025 	; 	DATA BYTE $c7,$00,$1b,$9b,$55,$4b,$83,$c3
C538  C7                04026 	DB $C7
C539  00                04027 	DB $00
C53A  1B                04028 	DB $1B
C53B  9B                04029 	DB $9B
C53C  55                04030 	DB $55
C53D  4B                04031 	DB $4B
C53E  83                04032 	DB $83
C53F  C3                04033 	DB $C3
C540                    04034 	; 	DATA BYTE $c3,$0b,$4f,$bf,$eb,$2e,$e5,$2e
C540  C3                04035 	DB $C3
C541  0B                04036 	DB $0B
C542  4F                04037 	DB $4F
C543  BF                04038 	DB $BF
C544  EB                04039 	DB $EB
C545  2E                04040 	DB $2E
C546  E5                04041 	DB $E5
C547  2E                04042 	DB $2E
C548                    04043 	; 	DATA BYTE $1b,$5f,$7f,$c9,$ce,$f7,$49,$9a
C548  1B                04044 	DB $1B
C549  5F                04045 	DB $5F
C54A  7F                04046 	DB $7F
C54B  C9                04047 	DB $C9
C54C  CE                04048 	DB $CE
C54D  F7                04049 	DB $F7
C54E  49                04050 	DB $49
C54F  9A                04051 	DB $9A
C550                    04052 	; 	DATA BYTE $c3,$ef,$e7,$e2,$c5,$6a,$c5,$02
C550  C3                04053 	DB $C3
C551  EF                04054 	DB $EF
C552  E7                04055 	DB $E7
C553  E2                04056 	DB $E2
C554  C5                04057 	DB $C5
C555  6A                04058 	DB $6A
C556  C5                04059 	DB $C5
C557  02                04060 	DB $02
C558                    04061 	; 	DATA BYTE $fb,$ff,$fb,$9f,$fb,$fd,$07,$00
C558  FB                04062 	DB $FB
C559  FF                04063 	DB $FF
C55A  FB                04064 	DB $FB
C55B  9F                04065 	DB $9F
C55C  FB                04066 	DB $FB
C55D  FD                04067 	DB $FD
C55E  07                04068 	DB $07
C55F  00                04069 	DB $00
C560                    04070 	; 	DATA BYTE $10,$51,$81,$51,$d1,$d0,$e1,$f1
C560  10                04071 	DB $10
C561  51                04072 	DB $51
C562  81                04073 	DB $81
C563  51                04074 	DB $51
C564  D1                04075 	DB $D1
C565  D0                04076 	DB $D0
C566  E1                04077 	DB $E1
C567  F1                04078 	DB $F1
C568                    04079 	; 	DATA BYTE $44,$a8,$93,$f9,$18,$f9,$18,$fc
C568  44                04080 	DB $44
C569  A8                04081 	DB $A8
C56A  93                04082 	DB $93
C56B  F9                04083 	DB $F9
C56C  18                04084 	DB $18
C56D  F9                04085 	DB $F9
C56E  18                04086 	DB $18
C56F  FC                04087 	DB $FC
C570                    04088 	; 	DATA BYTE $d5,$c0,$02,$45,$8a,$4f,$2a,$06
C570  D5                04089 	DB $D5
C571  C0                04090 	DB $C0
C572  02                04091 	DB $02
C573  45                04092 	DB $45
C574  8A                04093 	DB $8A
C575  4F                04094 	DB $4F
C576  2A                04095 	DB $2A
C577  06                04096 	DB $06
C578                    04097 	; 	DATA BYTE $ff,$1c,$3d,$e8,$71,$36,$29,$74
C578  FF                04098 	DB $FF
C579  1C                04099 	DB $1C
C57A  3D                04100 	DB $3D
C57B  E8                04101 	DB $E8
C57C  71                04102 	DB $71
C57D  36                04103 	DB $36
C57E  29                04104 	DB $29
C57F  74                04105 	DB $74
C580                    04106 	; 	DATA BYTE $55,$20,$e0,$00,$f9,$02,$fa,$f4
C580  55                04107 	DB $55
C581  20                04108 	DB $20
C582  E0                04109 	DB $E0
C583  00                04110 	DB $00
C584  F9                04111 	DB $F9
C585  02                04112 	DB $02
C586  FA                04113 	DB $FA
C587  F4                04114 	DB $F4
C588                    04115 	; 	DATA BYTE $a8,$e1,$63,$7b,$dd,$50,$7c,$7e
C588  A8                04116 	DB $A8
C589  E1                04117 	DB $E1
C58A  63                04118 	DB $63
C58B  7B                04119 	DB $7B
C58C  DD                04120 	DB $DD
C58D  50                04121 	DB $50
C58E  7C                04122 	DB $7C
C58F  7E                04123 	DB $7E
C590                    04124 	; 	DATA BYTE $3a,$3e,$1c,$3e,$3d,$03,$00,$07
C590  3A                04125 	DB $3A
C591  3E                04126 	DB $3E
C592  1C                04127 	DB $1C
C593  3E                04128 	DB $3E
C594  3D                04129 	DB $3D
C595  03                04130 	DB $03
C596  00                04131 	DB $00
C597  07                04132 	DB $07
C598                    04133 	; 	DATA BYTE $b2,$fd,$b1,$09,$f3,$99,$a0,$21
C598  B2                04134 	DB $B2
C599  FD                04135 	DB $FD
C59A  B1                04136 	DB $B1
C59B  09                04137 	DB $09
C59C  F3                04138 	DB $F3
C59D  99                04139 	DB $99
C59E  A0                04140 	DB $A0
C59F  21                04141 	DB $21
C5A0                    04142 	; 	DATA BYTE $97,$63,$b5,$7c,$83,$0d,$57,$9a
C5A0  97                04143 	DB $97
C5A1  63                04144 	DB $63
C5A2  B5                04145 	DB $B5
C5A3  7C                04146 	DB $7C
C5A4  83                04147 	DB $83
C5A5  0D                04148 	DB $0D
C5A6  57                04149 	DB $57
C5A7  9A                04150 	DB $9A
C5A8                    04151 	; 	DATA BYTE $07,$ba,$24,$af,$01,$e8,$ab,$5b
C5A8  07                04152 	DB $07
C5A9  BA                04153 	DB $BA
C5AA  24                04154 	DB $24
C5AB  AF                04155 	DB $AF
C5AC  01                04156 	DB $01
C5AD  E8                04157 	DB $E8
C5AE  AB                04158 	DB $AB
C5AF  5B                04159 	DB $5B
C5B0                    04160 	; 	DATA BYTE $a7,$4a,$fe,$fd,$a8,$8c,$83,$00
C5B0  A7                04161 	DB $A7
C5B1  4A                04162 	DB $4A
C5B2  FE                04163 	DB $FE
C5B3  FD                04164 	DB $FD
C5B4  A8                04165 	DB $A8
C5B5  8C                04166 	DB $8C
C5B6  83                04167 	DB $83
C5B7  00                04168 	DB $00
C5B8                    04169 	; 	DATA BYTE $a8,$4e,$04,$8d,$06,$19,$0e,$1e
C5B8  A8                04170 	DB $A8
C5B9  4E                04171 	DB $4E
C5BA  04                04172 	DB $04
C5BB  8D                04173 	DB $8D
C5BC  06                04174 	DB $06
C5BD  19                04175 	DB $19
C5BE  0E                04176 	DB $0E
C5BF  1E                04177 	DB $1E
C5C0                    04178 	; 	DATA BYTE $1e,$3c,$67,$00,$34,$04,$fd,$45
C5C0  1E                04179 	DB $1E
C5C1  3C                04180 	DB $3C
C5C2  67                04181 	DB $67
C5C3  00                04182 	DB $00
C5C4  34                04183 	DB $34
C5C5  04                04184 	DB $04
C5C6  FD                04185 	DB $FD
C5C7  45                04186 	DB $45
C5C8                    04187 	; 	DATA BYTE $fc,$e9,$b5,$44,$05,$65,$20,$b0
C5C8  FC                04188 	DB $FC
C5C9  E9                04189 	DB $E9
C5CA  B5                04190 	DB $B5
C5CB  44                04191 	DB $44
C5CC  05                04192 	DB $05
C5CD  65                04193 	DB $65
C5CE  20                04194 	DB $20
C5CF  B0                04195 	DB $B0
C5D0                    04196 	; 	DATA BYTE $85,$50,$a4,$24,$27,$b9,$29,$73
C5D0  85                04197 	DB $85
C5D1  50                04198 	DB $50
C5D2  A4                04199 	DB $A4
C5D3  24                04200 	DB $24
C5D4  27                04201 	DB $27
C5D5  B9                04202 	DB $B9
C5D6  29                04203 	DB $29
C5D7  73                04204 	DB $73
C5D8                    04205 	; 	DATA BYTE $0a,$e7,$71,$55,$9b,$d0,$0f,$b7
C5D8  0A                04206 	DB $0A
C5D9  E7                04207 	DB $E7
C5DA  71                04208 	DB $71
C5DB  55                04209 	DB $55
C5DC  9B                04210 	DB $9B
C5DD  D0                04211 	DB $D0
C5DE  0F                04212 	DB $0F
C5DF  B7                04213 	DB $B7
C5E0                    04214 	; 	DATA BYTE $75,$01,$f0,$38,$d5,$73,$c3,$a4
C5E0  75                04215 	DB $75
C5E1  01                04216 	DB $01
C5E2  F0                04217 	DB $F0
C5E3  38                04218 	DB $38
C5E4  D5                04219 	DB $D5
C5E5  73                04220 	DB $73
C5E6  C3                04221 	DB $C3
C5E7  A4                04222 	DB $A4
C5E8                    04223 	; 	DATA BYTE $ef,$81,$52,$c4,$0d,$23,$df,$f9
C5E8  EF                04224 	DB $EF
C5E9  81                04225 	DB $81
C5EA  52                04226 	DB $52
C5EB  C4                04227 	DB $C4
C5EC  0D                04228 	DB $0D
C5ED  23                04229 	DB $23
C5EE  DF                04230 	DB $DF
C5EF  F9                04231 	DB $F9
C5F0                    04232 	; 	DATA BYTE $0a,$ee,$94,$41,$44,$94,$f6,$2e
C5F0  0A                04233 	DB $0A
C5F1  EE                04234 	DB $EE
C5F2  94                04235 	DB $94
C5F3  41                04236 	DB $41
C5F4  44                04237 	DB $44
C5F5  94                04238 	DB $94
C5F6  F6                04239 	DB $F6
C5F7  2E                04240 	DB $2E
C5F8                    04241 	; 	DATA BYTE $4c,$02,$03,$93,$6b,$bc,$b2,$e7
C5F8  4C                04242 	DB $4C
C5F9  02                04243 	DB $02
C5FA  03                04244 	DB $03
C5FB  93                04245 	DB $93
C5FC  6B                04246 	DB $6B
C5FD  BC                04247 	DB $BC
C5FE  B2                04248 	DB $B2
C5FF  E7                04249 	DB $E7
C600                    04250 	; 	DATA BYTE $e8,$78,$83,$83,$0f,$1f,$38,$b1
C600  E8                04251 	DB $E8
C601  78                04252 	DB $78
C602  83                04253 	DB $83
C603  83                04254 	DB $83
C604  0F                04255 	DB $0F
C605  1F                04256 	DB $1F
C606  38                04257 	DB $38
C607  B1                04258 	DB $B1
C608                    04259 	; 	DATA BYTE $3f,$57,$01,$3e,$56,$36,$10,$02
C608  3F                04260 	DB $3F
C609  57                04261 	DB $57
C60A  01                04262 	DB $01
C60B  3E                04263 	DB $3E
C60C  56                04264 	DB $56
C60D  36                04265 	DB $36
C60E  10                04266 	DB $10
C60F  02                04267 	DB $02
C610                    04268 	; 	DATA BYTE $10,$e7,$ad,$bf,$96,$93,$6a,$02
C610  10                04269 	DB $10
C611  E7                04270 	DB $E7
C612  AD                04271 	DB $AD
C613  BF                04272 	DB $BF
C614  96                04273 	DB $96
C615  93                04274 	DB $93
C616  6A                04275 	DB $6A
C617  02                04276 	DB $02
C618                    04277 	; 	DATA BYTE $1f,$ae,$5f,$f2,$f5,$f6,$8b,$11
C618  1F                04278 	DB $1F
C619  AE                04279 	DB $AE
C61A  5F                04280 	DB $5F
C61B  F2                04281 	DB $F2
C61C  F5                04282 	DB $F5
C61D  F6                04283 	DB $F6
C61E  8B                04284 	DB $8B
C61F  11                04285 	DB $11
C620                    04286 	; 	DATA BYTE $d5,$ba,$f5,$28,$0b,$8a,$8b,$54
C620  D5                04287 	DB $D5
C621  BA                04288 	DB $BA
C622  F5                04289 	DB $F5
C623  28                04290 	DB $28
C624  0B                04291 	DB $0B
C625  8A                04292 	DB $8A
C626  8B                04293 	DB $8B
C627  54                04294 	DB $54
C628                    04295 	; 	DATA BYTE $5d,$a3,$20,$99,$6f,$f0,$00,$20
C628  5D                04296 	DB $5D
C629  A3                04297 	DB $A3
C62A  20                04298 	DB $20
C62B  99                04299 	DB $99
C62C  6F                04300 	DB $6F
C62D  F0                04301 	DB $F0
C62E  00                04302 	DB $00
C62F  20                04303 	DB $20
C630                    04304 	; 	DATA BYTE $b5,$80,$e2,$63,$62,$73,$97,$31
C630  B5                04305 	DB $B5
C631  80                04306 	DB $80
C632  E2                04307 	DB $E2
C633  63                04308 	DB $63
C634  62                04309 	DB $62
C635  73                04310 	DB $73
C636  97                04311 	DB $97
C637  31                04312 	DB $31
C638                    04313 	; 	DATA BYTE $00,$95,$f8,$b3,$ee,$09,$9f,$9a
C638  00                04314 	DB $00
C639  95                04315 	DB $95
C63A  F8                04316 	DB $F8
C63B  B3                04317 	DB $B3
C63C  EE                04318 	DB $EE
C63D  09                04319 	DB $09
C63E  9F                04320 	DB $9F
C63F  9A                04321 	DB $9A
C640                    04322 	; 	DATA BYTE $d5,$18,$3a,$af,$02,$fc,$00,$30
C640  D5                04323 	DB $D5
C641  18                04324 	DB $18
C642  3A                04325 	DB $3A
C643  AF                04326 	DB $AF
C644  02                04327 	DB $02
C645  FC                04328 	DB $FC
C646  00                04329 	DB $00
C647  30                04330 	DB $30
C648                    04331 	; 	DATA BYTE $21,$8b,$8a,$44,$00,$2e,$df,$4e
C648  21                04332 	DB $21
C649  8B                04333 	DB $8B
C64A  8A                04334 	DB $8A
C64B  44                04335 	DB $44
C64C  00                04336 	DB $00
C64D  2E                04337 	DB $2E
C64E  DF                04338 	DB $DF
C64F  4E                04339 	DB $4E
C650                    04340 	; 	DATA BYTE $03,$07,$e8,$4d,$12,$28,$14,$43
C650  03                04341 	DB $03
C651  07                04342 	DB $07
C652  E8                04343 	DB $E8
C653  4D                04344 	DB $4D
C654  12                04345 	DB $12
C655  28                04346 	DB $28
C656  14                04347 	DB $14
C657  43                04348 	DB $43
C658                    04349 	; 	DATA BYTE $f0,$c6,$4c,$01,$00,$f1,$d8,$61
C658  F0                04350 	DB $F0
C659  C6                04351 	DB $C6
C65A  4C                04352 	DB $4C
C65B  01                04353 	DB $01
C65C  00                04354 	DB $00
C65D  F1                04355 	DB $F1
C65E  D8                04356 	DB $D8
C65F  61                04357 	DB $61
C660                    04358 	; 	DATA BYTE $77,$a0,$50,$09,$99,$f8,$53,$2a
C660  77                04359 	DB $77
C661  A0                04360 	DB $A0
C662  50                04361 	DB $50
C663  09                04362 	DB $09
C664  99                04363 	DB $99
C665  F8                04364 	DB $F8
C666  53                04365 	DB $53
C667  2A                04366 	DB $2A
C668                    04367 	; 	DATA BYTE $75,$ee,$c9,$13,$d7,$02,$d4,$ad
C668  75                04368 	DB $75
C669  EE                04369 	DB $EE
C66A  C9                04370 	DB $C9
C66B  13                04371 	DB $13
C66C  D7                04372 	DB $D7
C66D  02                04373 	DB $02
C66E  D4                04374 	DB $D4
C66F  AD                04375 	DB $AD
C670                    04376 	; 	DATA BYTE $90,$23,$57,$01,$1e,$3f,$22,$99
C670  90                04377 	DB $90
C671  23                04378 	DB $23
C672  57                04379 	DB $57
C673  01                04380 	DB $01
C674  1E                04381 	DB $1E
C675  3F                04382 	DB $3F
C676  22                04383 	DB $22
C677  99                04384 	DB $99
C678                    04385 	; 	DATA BYTE $ab,$c5,$da,$7f,$27,$f7,$85,$df
C678  AB                04386 	DB $AB
C679  C5                04387 	DB $C5
C67A  DA                04388 	DB $DA
C67B  7F                04389 	DB $7F
C67C  27                04390 	DB $27
C67D  F7                04391 	DB $F7
C67E  85                04392 	DB $85
C67F  DF                04393 	DB $DF
C680                    04394 	; 	DATA BYTE $8b,$af,$e7,$85,$20,$02,$f3,$f4
C680  8B                04395 	DB $8B
C681  AF                04396 	DB $AF
C682  E7                04397 	DB $E7
C683  85                04398 	DB $85
C684  20                04399 	DB $20
C685  02                04400 	DB $02
C686  F3                04401 	DB $F3
C687  F4                04402 	DB $F4
C688                    04403 	; 	DATA BYTE $e7,$48,$b6,$61,$97,$a6,$b3,$01
C688  E7                04404 	DB $E7
C689  48                04405 	DB $48
C68A  B6                04406 	DB $B6
C68B  61                04407 	DB $61
C68C  97                04408 	DB $97
C68D  A6                04409 	DB $A6
C68E  B3                04410 	DB $B3
C68F  01                04411 	DB $01
C690                    04412 	; 	DATA BYTE $2d,$40,$c0,$99,$b2,$ed,$0f,$21
C690  2D                04413 	DB $2D
C691  40                04414 	DB $40
C692  C0                04415 	DB $C0
C693  99                04416 	DB $99
C694  B2                04417 	DB $B2
C695  ED                04418 	DB $ED
C696  0F                04419 	DB $0F
C697  21                04420 	DB $21
C698                    04421 	; 	DATA BYTE $2f,$07,$81,$62,$e1,$e1,$98,$e3
C698  2F                04422 	DB $2F
C699  07                04423 	DB $07
C69A  81                04424 	DB $81
C69B  62                04425 	DB $62
C69C  E1                04426 	DB $E1
C69D  E1                04427 	DB $E1
C69E  98                04428 	DB $98
C69F  E3                04429 	DB $E3
C6A0                    04430 	; 	DATA BYTE $e7,$00,$f3,$00,$f3,$f7,$bf,$15
C6A0  E7                04431 	DB $E7
C6A1  00                04432 	DB $00
C6A2  F3                04433 	DB $F3
C6A3  00                04434 	DB $00
C6A4  F3                04435 	DB $F3
C6A5  F7                04436 	DB $F7
C6A6  BF                04437 	DB $BF
C6A7  15                04438 	DB $15
C6A8                    04439 	; 	DATA BYTE $70,$78,$7d,$71,$05,$61,$55,$ef
C6A8  70                04440 	DB $70
C6A9  78                04441 	DB $78
C6AA  7D                04442 	DB $7D
C6AB  71                04443 	DB $71
C6AC  05                04444 	DB $05
C6AD  61                04445 	DB $61
C6AE  55                04446 	DB $55
C6AF  EF                04447 	DB $EF
C6B0                    04448 	; 	DATA BYTE $55,$28,$ad,$f6,$6d,$7e,$b3,$64
C6B0  55                04449 	DB $55
C6B1  28                04450 	DB $28
C6B2  AD                04451 	DB $AD
C6B3  F6                04452 	DB $F6
C6B4  6D                04453 	DB $6D
C6B5  7E                04454 	DB $7E
C6B6  B3                04455 	DB $B3
C6B7  64                04456 	DB $64
C6B8                    04457 	; 	DATA BYTE $b9,$25,$66,$d8,$3d,$88,$30,$d9
C6B8  B9                04458 	DB $B9
C6B9  25                04459 	DB $25
C6BA  66                04460 	DB $66
C6BB  D8                04461 	DB $D8
C6BC  3D                04462 	DB $3D
C6BD  88                04463 	DB $88
C6BE  30                04464 	DB $30
C6BF  D9                04465 	DB $D9
C6C0                    04466 	; 	DATA BYTE $4d,$20,$b1,$bf,$92,$d0,$00,$cb
C6C0  4D                04467 	DB $4D
C6C1  20                04468 	DB $20
C6C2  B1                04469 	DB $B1
C6C3  BF                04470 	DB $BF
C6C4  92                04471 	DB $92
C6C5  D0                04472 	DB $D0
C6C6  00                04473 	DB $00
C6C7  CB                04474 	DB $CB
C6C8                    04475 	; 	DATA BYTE $41,$9b,$0d,$07,$fc,$22,$07,$08
C6C8  41                04476 	DB $41
C6C9  9B                04477 	DB $9B
C6CA  0D                04478 	DB $0D
C6CB  07                04479 	DB $07
C6CC  FC                04480 	DB $FC
C6CD  22                04481 	DB $22
C6CE  07                04482 	DB $07
C6CF  08                04483 	DB $08
C6D0                    04484 	; 	DATA BYTE $a5,$07,$53,$18,$55,$7a,$75,$01
C6D0  A5                04485 	DB $A5
C6D1  07                04486 	DB $07
C6D2  53                04487 	DB $53
C6D3  18                04488 	DB $18
C6D4  55                04489 	DB $55
C6D5  7A                04490 	DB $7A
C6D6  75                04491 	DB $75
C6D7  01                04492 	DB $01
C6D8                    04493 	; 	DATA BYTE $55,$00,$87,$01,$ae,$5d,$ae,$5c
C6D8  55                04494 	DB $55
C6D9  00                04495 	DB $00
C6DA  87                04496 	DB $87
C6DB  01                04497 	DB $01
C6DC  AE                04498 	DB $AE
C6DD  5D                04499 	DB $5D
C6DE  AE                04500 	DB $AE
C6DF  5C                04501 	DB $5C
C6E0                    04502 	; 	DATA BYTE $a8,$59,$ea,$ea,$80,$da,$70,$d0
C6E0  A8                04503 	DB $A8
C6E1  59                04504 	DB $59
C6E2  EA                04505 	DB $EA
C6E3  EA                04506 	DB $EA
C6E4  80                04507 	DB $80
C6E5  DA                04508 	DB $DA
C6E6  70                04509 	DB $70
C6E7  D0                04510 	DB $D0
C6E8                    04511 	; 	DATA BYTE $03,$10,$04,$1f,$18,$38,$18,$83
C6E8  03                04512 	DB $03
C6E9  10                04513 	DB $10
C6EA  04                04514 	DB $04
C6EB  1F                04515 	DB $1F
C6EC  18                04516 	DB $18
C6ED  38                04517 	DB $38
C6EE  18                04518 	DB $18
C6EF  83                04519 	DB $83
C6F0                    04520 	; 	DATA BYTE $d7,$c0,$e6,$bc,$8f,$50,$7a,$45
C6F0  D7                04521 	DB $D7
C6F1  C0                04522 	DB $C0
C6F2  E6                04523 	DB $E6
C6F3  BC                04524 	DB $BC
C6F4  8F                04525 	DB $8F
C6F5  50                04526 	DB $50
C6F6  7A                04527 	DB $7A
C6F7  45                04528 	DB $45
C6F8                    04529 	; 	DATA BYTE $7a,$f6,$14,$fc,$b1,$d3,$00,$00
C6F8  7A                04530 	DB $7A
C6F9  F6                04531 	DB $F6
C6FA  14                04532 	DB $14
C6FB  FC                04533 	DB $FC
C6FC  B1                04534 	DB $B1
C6FD  D3                04535 	DB $D3
C6FE  00                04536 	DB $00
C6FF  00                04537 	DB $00
C700                    04538 	; 	DATA BYTE $5c,$00,$30,$2a,$14,$ad,$94,$05
C700  5C                04539 	DB $5C
C701  00                04540 	DB $00
C702  30                04541 	DB $30
C703  2A                04542 	DB $2A
C704  14                04543 	DB $14
C705  AD                04544 	DB $AD
C706  94                04545 	DB $94
C707  05                04546 	DB $05
C708                    04547 	; 	DATA BYTE $01,$ed,$0c,$0b,$d5,$21,$ab,$7f
C708  01                04548 	DB $01
C709  ED                04549 	DB $ED
C70A  0C                04550 	DB $0C
C70B  0B                04551 	DB $0B
C70C  D5                04552 	DB $D5
C70D  21                04553 	DB $21
C70E  AB                04554 	DB $AB
C70F  7F                04555 	DB $7F
C710                    04556 	; 	DATA BYTE $f8,$19,$b0,$f4,$fc,$17,$4d,$c0
C710  F8                04557 	DB $F8
C711  19                04558 	DB $19
C712  B0                04559 	DB $B0
C713  F4                04560 	DB $F4
C714  FC                04561 	DB $FC
C715  17                04562 	DB $17
C716  4D                04563 	DB $4D
C717  C0                04564 	DB $C0
C718                    04565 	; 	DATA BYTE $3f,$c7,$95,$15,$2e,$b6,$b1,$14
C718  3F                04566 	DB $3F
C719  C7                04567 	DB $C7
C71A  95                04568 	DB $95
C71B  15                04569 	DB $15
C71C  2E                04570 	DB $2E
C71D  B6                04571 	DB $B6
C71E  B1                04572 	DB $B1
C71F  14                04573 	DB $14
C720                    04574 	; 	DATA BYTE $6d,$5d,$08,$b9,$7e,$01,$6a,$e4
C720  6D                04575 	DB $6D
C721  5D                04576 	DB $5D
C722  08                04577 	DB $08
C723  B9                04578 	DB $B9
C724  7E                04579 	DB $7E
C725  01                04580 	DB $01
C726  6A                04581 	DB $6A
C727  E4                04582 	DB $E4
C728                    04583 	; 	DATA BYTE $d5,$81,$fc,$f5,$af,$cc,$f1,$80
C728  D5                04584 	DB $D5
C729  81                04585 	DB $81
C72A  FC                04586 	DB $FC
C72B  F5                04587 	DB $F5
C72C  AF                04588 	DB $AF
C72D  CC                04589 	DB $CC
C72E  F1                04590 	DB $F1
C72F  80                04591 	DB $80
C730                    04592 	; 	DATA BYTE $c6,$97,$4f,$a0,$01,$44,$e0,$17
C730  C6                04593 	DB $C6
C731  97                04594 	DB $97
C732  4F                04595 	DB $4F
C733  A0                04596 	DB $A0
C734  01                04597 	DB $01
C735  44                04598 	DB $44
C736  E0                04599 	DB $E0
C737  17                04600 	DB $17
C738                    04601 	; 	DATA BYTE $f7,$51,$01,$11,$c6,$fb,$0c,$07
C738  F7                04602 	DB $F7
C739  51                04603 	DB $51
C73A  01                04604 	DB $01
C73B  11                04605 	DB $11
C73C  C6                04606 	DB $C6
C73D  FB                04607 	DB $FB
C73E  0C                04608 	DB $0C
C73F  07                04609 	DB $07
C740                    04610 	; 	DATA BYTE $71,$01,$60,$b1,$64,$8a,$c7,$2a
C740  71                04611 	DB $71
C741  01                04612 	DB $01
C742  60                04613 	DB $60
C743  B1                04614 	DB $B1
C744  64                04615 	DB $64
C745  8A                04616 	DB $8A
C746  C7                04617 	DB $C7
C747  2A                04618 	DB $2A
C748                    04619 	; 	DATA BYTE $60,$07,$a7,$80,$1e,$1f,$fa,$1a
C748  60                04620 	DB $60
C749  07                04621 	DB $07
C74A  A7                04622 	DB $A7
C74B  80                04623 	DB $80
C74C  1E                04624 	DB $1E
C74D  1F                04625 	DB $1F
C74E  FA                04626 	DB $FA
C74F  1A                04627 	DB $1A
C750                    04628 	; 	DATA BYTE $45,$00,$9d,$81,$b9,$7c,$c6,$a3
C750  45                04629 	DB $45
C751  00                04630 	DB $00
C752  9D                04631 	DB $9D
C753  81                04632 	DB $81
C754  B9                04633 	DB $B9
C755  7C                04634 	DB $7C
C756  C6                04635 	DB $C6
C757  A3                04636 	DB $A3
C758                    04637 	; 	DATA BYTE $c0,$f8,$7c,$fc,$70,$38,$40,$01
C758  C0                04638 	DB $C0
C759  F8                04639 	DB $F8
C75A  7C                04640 	DB $7C
C75B  FC                04641 	DB $FC
C75C  70                04642 	DB $70
C75D  38                04643 	DB $38
C75E  40                04644 	DB $40
C75F  01                04645 	DB $01
C760                    04646 	; 	DATA BYTE $00,$18,$18,$1c,$1c,$39,$10,$c0
C760  00                04647 	DB $00
C761  18                04648 	DB $18
C762  18                04649 	DB $18
C763  1C                04650 	DB $1C
C764  1C                04651 	DB $1C
C765  39                04652 	DB $39
C766  10                04653 	DB $10
C767  C0                04654 	DB $C0
C768                    04655 	; 	DATA BYTE $e4,$fc,$da,$40,$fc,$a2,$08,$c4
C768  E4                04656 	DB $E4
C769  FC                04657 	DB $FC
C76A  DA                04658 	DB $DA
C76B  40                04659 	DB $40
C76C  FC                04660 	DB $FC
C76D  A2                04661 	DB $A2
C76E  08                04662 	DB $08
C76F  C4                04663 	DB $C4
C770                    04664 	; 	DATA BYTE $c6,$ce,$3e,$f1,$c7,$dc,$22,$14
C770  C6                04665 	DB $C6
C771  CE                04666 	DB $CE
C772  3E                04667 	DB $3E
C773  F1                04668 	DB $F1
C774  C7                04669 	DB $C7
C775  DC                04670 	DB $DC
C776  22                04671 	DB $22
C777  14                04672 	DB $14
C778                    04673 	; 	DATA BYTE $b0,$bf,$4d,$8e,$b4,$90,$04,$06
C778  B0                04674 	DB $B0
C779  BF                04675 	DB $BF
C77A  4D                04676 	DB $4D
C77B  8E                04677 	DB $8E
C77C  B4                04678 	DB $B4
C77D  90                04679 	DB $90
C77E  04                04680 	DB $04
C77F  06                04681 	DB $06
C780                    04682 	; 	DATA BYTE $04,$0e,$04,$f2,$59,$99,$c8,$03
C780  04                04683 	DB $04
C781  0E                04684 	DB $0E
C782  04                04685 	DB $04
C783  F2                04686 	DB $F2
C784  59                04687 	DB $59
C785  99                04688 	DB $99
C786  C8                04689 	DB $C8
C787  03                04690 	DB $03
C788                    04691 	; 	DATA BYTE $05,$aa,$5f,$23,$1f,$c0,$f7,$9d
C788  05                04692 	DB $05
C789  AA                04693 	DB $AA
C78A  5F                04694 	DB $5F
C78B  23                04695 	DB $23
C78C  1F                04696 	DB $1F
C78D  C0                04697 	DB $C0
C78E  F7                04698 	DB $F7
C78F  9D                04699 	DB $9D
C790                    04700 	; 	DATA BYTE $9b,$fe,$9e,$ce,$3c,$9a,$00,$0c
C790  9B                04701 	DB $9B
C791  FE                04702 	DB $FE
C792  9E                04703 	DB $9E
C793  CE                04704 	DB $CE
C794  3C                04705 	DB $3C
C795  9A                04706 	DB $9A
C796  00                04707 	DB $00
C797  0C                04708 	DB $0C
C798                    04709 	; 	DATA BYTE $46,$b0,$f8,$80,$38,$ed,$a9,$00
C798  46                04710 	DB $46
C799  B0                04711 	DB $B0
C79A  F8                04712 	DB $F8
C79B  80                04713 	DB $80
C79C  38                04714 	DB $38
C79D  ED                04715 	DB $ED
C79E  A9                04716 	DB $A9
C79F  00                04717 	DB $00
C7A0                    04718 	; 	DATA BYTE $33,$02,$4f,$9f,$01,$9d,$0e,$03
C7A0  33                04719 	DB $33
C7A1  02                04720 	DB $02
C7A2  4F                04721 	DB $4F
C7A3  9F                04722 	DB $9F
C7A4  01                04723 	DB $01
C7A5  9D                04724 	DB $9D
C7A6  0E                04725 	DB $0E
C7A7  03                04726 	DB $03
C7A8                    04727 	; 	DATA BYTE $94,$4f,$25,$92,$10,$ff,$3c,$08
C7A8  94                04728 	DB $94
C7A9  4F                04729 	DB $4F
C7AA  25                04730 	DB $25
C7AB  92                04731 	DB $92
C7AC  10                04732 	DB $10
C7AD  FF                04733 	DB $FF
C7AE  3C                04734 	DB $3C
C7AF  08                04735 	DB $08
C7B0                    04736 	; 	DATA BYTE $1f,$64,$13,$53,$5b,$02,$39,$04
C7B0  1F                04737 	DB $1F
C7B1  64                04738 	DB $64
C7B2  13                04739 	DB $13
C7B3  53                04740 	DB $53
C7B4  5B                04741 	DB $5B
C7B5  02                04742 	DB $02
C7B6  39                04743 	DB $39
C7B7  04                04744 	DB $04
C7B8                    04745 	; 	DATA BYTE $ea,$d3,$95,$05,$98,$7b,$6c,$f7
C7B8  EA                04746 	DB $EA
C7B9  D3                04747 	DB $D3
C7BA  95                04748 	DB $95
C7BB  05                04749 	DB $05
C7BC  98                04750 	DB $98
C7BD  7B                04751 	DB $7B
C7BE  6C                04752 	DB $6C
C7BF  F7                04753 	DB $F7
C7C0                    04754 	; 	DATA BYTE $e3,$18,$ef,$ef,$05,$18,$ed,$40
C7C0  E3                04755 	DB $E3
C7C1  18                04756 	DB $18
C7C2  EF                04757 	DB $EF
C7C3  EF                04758 	DB $EF
C7C4  05                04759 	DB $05
C7C5  18                04760 	DB $18
C7C6  ED                04761 	DB $ED
C7C7  40                04762 	DB $40
C7C8                    04763 	; 	DATA BYTE $f1,$79,$40,$d7,$34,$c1,$98,$e0
C7C8  F1                04764 	DB $F1
C7C9  79                04765 	DB $79
C7CA  40                04766 	DB $40
C7CB  D7                04767 	DB $D7
C7CC  34                04768 	DB $34
C7CD  C1                04769 	DB $C1
C7CE  98                04770 	DB $98
C7CF  E0                04771 	DB $E0
C7D0                    04772 	; 	DATA BYTE $a0,$ff,$81,$ef,$81,$03,$0f,$47
C7D0  A0                04773 	DB $A0
C7D1  FF                04774 	DB $FF
C7D2  81                04775 	DB $81
C7D3  EF                04776 	DB $EF
C7D4  81                04777 	DB $81
C7D5  03                04778 	DB $03
C7D6  0F                04779 	DB $0F
C7D7  47                04780 	DB $47
C7D8                    04781 	; 	DATA BYTE $91,$09,$df,$22,$11,$4b,$2b,$ad
C7D8  91                04782 	DB $91
C7D9  09                04783 	DB $09
C7DA  DF                04784 	DB $DF
C7DB  22                04785 	DB $22
C7DC  11                04786 	DB $11
C7DD  4B                04787 	DB $4B
C7DE  2B                04788 	DB $2B
C7DF  AD                04789 	DB $AD
C7E0                    04790 	; 	DATA BYTE $d3,$13,$6f,$06,$0b,$01,$0e,$05
C7E0  D3                04791 	DB $D3
C7E1  13                04792 	DB $13
C7E2  6F                04793 	DB $6F
C7E3  06                04794 	DB $06
C7E4  0B                04795 	DB $0B
C7E5  01                04796 	DB $01
C7E6  0E                04797 	DB $0E
C7E7  05                04798 	DB $05
C7E8                    04799 	; 	DATA BYTE $17,$a3,$01,$c7,$65,$3f,$c3,$a2
C7E8  17                04800 	DB $17
C7E9  A3                04801 	DB $A3
C7EA  01                04802 	DB $01
C7EB  C7                04803 	DB $C7
C7EC  65                04804 	DB $65
C7ED  3F                04805 	DB $3F
C7EE  C3                04806 	DB $C3
C7EF  A2                04807 	DB $A2
C7F0                    04808 	; 	DATA BYTE $0f,$33,$5c,$00,$a8,$30,$c1,$e2
C7F0  0F                04809 	DB $0F
C7F1  33                04810 	DB $33
C7F2  5C                04811 	DB $5C
C7F3  00                04812 	DB $00
C7F4  A8                04813 	DB $A8
C7F5  30                04814 	DB $30
C7F6  C1                04815 	DB $C1
C7F7  E2                04816 	DB $E2
C7F8                    04817 	; 	DATA BYTE $75,$40,$90,$bf,$20,$f0,$ec,$b6
C7F8  75                04818 	DB $75
C7F9  40                04819 	DB $40
C7FA  90                04820 	DB $90
C7FB  BF                04821 	DB $BF
C7FC  20                04822 	DB $20
C7FD  F0                04823 	DB $F0
C7FE  EC                04824 	DB $EC
C7FF  B6                04825 	DB $B6
C800                    04826 	; 	DATA BYTE $0c,$fa,$1f,$16,$06,$b5,$a8,$7f
C800  0C                04827 	DB $0C
C801  FA                04828 	DB $FA
C802  1F                04829 	DB $1F
C803  16                04830 	DB $16
C804  06                04831 	DB $06
C805  B5                04832 	DB $B5
C806  A8                04833 	DB $A8
C807  7F                04834 	DB $7F
C808                    04835 	; 	DATA BYTE $fb,$17,$62,$1f,$f0,$c6,$fb,$a8
C808  FB                04836 	DB $FB
C809  17                04837 	DB $17
C80A  62                04838 	DB $62
C80B  1F                04839 	DB $1F
C80C  F0                04840 	DB $F0
C80D  C6                04841 	DB $C6
C80E  FB                04842 	DB $FB
C80F  A8                04843 	DB $A8
C810                    04844 	; 	DATA BYTE $6d,$9c,$5b,$07,$97,$94,$81,$04
C810  6D                04845 	DB $6D
C811  9C                04846 	DB $9C
C812  5B                04847 	DB $5B
C813  07                04848 	DB $07
C814  97                04849 	DB $97
C815  94                04850 	DB $94
C816  81                04851 	DB $81
C817  04                04852 	DB $04
C818                    04853 	; 	DATA BYTE $9c,$9b,$1e,$1d,$24,$0e,$0e,$af
C818  9C                04854 	DB $9C
C819  9B                04855 	DB $9B
C81A  1E                04856 	DB $1E
C81B  1D                04857 	DB $1D
C81C  24                04858 	DB $24
C81D  0E                04859 	DB $0E
C81E  0E                04860 	DB $0E
C81F  AF                04861 	DB $AF
C820                    04862 	; 	DATA BYTE $80,$ab,$20,$61,$23,$e3,$54,$bd
C820  80                04863 	DB $80
C821  AB                04864 	DB $AB
C822  20                04865 	DB $20
C823  61                04866 	DB $61
C824  23                04867 	DB $23
C825  E3                04868 	DB $E3
C826  54                04869 	DB $54
C827  BD                04870 	DB $BD
C828                    04871 	; 	DATA BYTE $88,$2e,$c1,$c3,$31,$3f,$60,$db
C828  88                04872 	DB $88
C829  2E                04873 	DB $2E
C82A  C1                04874 	DB $C1
C82B  C3                04875 	DB $C3
C82C  31                04876 	DB $31
C82D  3F                04877 	DB $3F
C82E  60                04878 	DB $60
C82F  DB                04879 	DB $DB
C830                    04880 	; 	DATA BYTE $f7,$20,$fa,$6e,$f2,$01,$ee,$0e
C830  F7                04881 	DB $F7
C831  20                04882 	DB $20
C832  FA                04883 	DB $FA
C833  6E                04884 	DB $6E
C834  F2                04885 	DB $F2
C835  01                04886 	DB $01
C836  EE                04887 	DB $EE
C837  0E                04888 	DB $0E
C838                    04889 	; 	DATA BYTE $3e,$c1,$85,$cf,$d9,$54,$c5,$af
C838  3E                04890 	DB $3E
C839  C1                04891 	DB $C1
C83A  85                04892 	DB $85
C83B  CF                04893 	DB $CF
C83C  D9                04894 	DB $D9
C83D  54                04895 	DB $54
C83E  C5                04896 	DB $C5
C83F  AF                04897 	DB $AF
C840                    04898 	; 	DATA BYTE $9d,$01,$98,$d9,$54,$e9,$4f,$11
C840  9D                04899 	DB $9D
C841  01                04900 	DB $01
C842  98                04901 	DB $98
C843  D9                04902 	DB $D9
C844  54                04903 	DB $54
C845  E9                04904 	DB $E9
C846  4F                04905 	DB $4F
C847  11                04906 	DB $11
C848                    04907 	; 	DATA BYTE $02,$a7,$57,$d1,$29,$4d,$a8,$8f
C848  02                04908 	DB $02
C849  A7                04909 	DB $A7
C84A  57                04910 	DB $57
C84B  D1                04911 	DB $D1
C84C  29                04912 	DB $29
C84D  4D                04913 	DB $4D
C84E  A8                04914 	DB $A8
C84F  8F                04915 	DB $8F
C850                    04916 	; 	DATA BYTE $d3,$8d,$24,$5f,$c7,$a7,$61,$45
C850  D3                04917 	DB $D3
C851  8D                04918 	DB $8D
C852  24                04919 	DB $24
C853  5F                04920 	DB $5F
C854  C7                04921 	DB $C7
C855  A7                04922 	DB $A7
C856  61                04923 	DB $61
C857  45                04924 	DB $45
C858                    04925 	; 	DATA BYTE $1f,$06,$fe,$57,$fd,$88,$1f,$c0
C858  1F                04926 	DB $1F
C859  06                04927 	DB $06
C85A  FE                04928 	DB $FE
C85B  57                04929 	DB $57
C85C  FD                04930 	DB $FD
C85D  88                04931 	DB $88
C85E  1F                04932 	DB $1F
C85F  C0                04933 	DB $C0
C860                    04934 	; 	DATA BYTE $cf,$b5,$3f,$bd,$0a,$dd,$49,$da
C860  CF                04935 	DB $CF
C861  B5                04936 	DB $B5
C862  3F                04937 	DB $3F
C863  BD                04938 	DB $BD
C864  0A                04939 	DB $0A
C865  DD                04940 	DB $DD
C866  49                04941 	DB $49
C867  DA                04942 	DB $DA
C868                    04943 	; 	DATA BYTE $0b,$55,$74,$40,$87,$f4,$df,$06
C868  0B                04944 	DB $0B
C869  55                04945 	DB $55
C86A  74                04946 	DB $74
C86B  40                04947 	DB $40
C86C  87                04948 	DB $87
C86D  F4                04949 	DB $F4
C86E  DF                04950 	DB $DF
C86F  06                04951 	DB $06
C870                    04952 	; 	DATA BYTE $1f,$ff,$e0,$40,$dc,$ed,$bf,$da
C870  1F                04953 	DB $1F
C871  FF                04954 	DB $FF
C872  E0                04955 	DB $E0
C873  40                04956 	DB $40
C874  DC                04957 	DB $DC
C875  ED                04958 	DB $ED
C876  BF                04959 	DB $BF
C877  DA                04960 	DB $DA
C878                    04961 	; 	DATA BYTE $be,$9a,$87,$5a,$05,$63,$47,$eb
C878  BE                04962 	DB $BE
C879  9A                04963 	DB $9A
C87A  87                04964 	DB $87
C87B  5A                04965 	DB $5A
C87C  05                04966 	DB $05
C87D  63                04967 	DB $63
C87E  47                04968 	DB $47
C87F  EB                04969 	DB $EB
C880                    04970 	; 	DATA BYTE $14,$09,$0e,$0c,$ef,$f7,$00,$76
C880  14                04971 	DB $14
C881  09                04972 	DB $09
C882  0E                04973 	DB $0E
C883  0C                04974 	DB $0C
C884  EF                04975 	DB $EF
C885  F7                04976 	DB $F7
C886  00                04977 	DB $00
C887  76                04978 	DB $76
C888                    04979 	; 	DATA BYTE $41,$a8,$38,$a0,$83,$b1,$8f,$d8
C888  41                04980 	DB $41
C889  A8                04981 	DB $A8
C88A  38                04982 	DB $38
C88B  A0                04983 	DB $A0
C88C  83                04984 	DB $83
C88D  B1                04985 	DB $B1
C88E  8F                04986 	DB $8F
C88F  D8                04987 	DB $D8
C890                    04988 	; 	DATA BYTE $60,$b7,$04,$e1,$f5,$00,$0b,$81
C890  60                04989 	DB $60
C891  B7                04990 	DB $B7
C892  04                04991 	DB $04
C893  E1                04992 	DB $E1
C894  F5                04993 	DB $F5
C895  00                04994 	DB $00
C896  0B                04995 	DB $0B
C897  81                04996 	DB $81
C898                    04997 	; 	DATA BYTE $1a,$9f,$9f,$5f,$4c,$6f,$11,$7f
C898  1A                04998 	DB $1A
C899  9F                04999 	DB $9F
C89A  9F                05000 	DB $9F
C89B  5F                05001 	DB $5F
C89C  4C                05002 	DB $4C
C89D  6F                05003 	DB $6F
C89E  11                05004 	DB $11
C89F  7F                05005 	DB $7F
C8A0                    05006 	; 	DATA BYTE $8c,$84,$b0,$08,$88,$18,$02,$bb
C8A0  8C                05007 	DB $8C
C8A1  84                05008 	DB $84
C8A2  B0                05009 	DB $B0
C8A3  08                05010 	DB $08
C8A4  88                05011 	DB $88
C8A5  18                05012 	DB $18
C8A6  02                05013 	DB $02
C8A7  BB                05014 	DB $BB
C8A8                    05015 	; 	DATA BYTE $48,$24,$22,$87,$54,$01,$61,$01
C8A8  48                05016 	DB $48
C8A9  24                05017 	DB $24
C8AA  22                05018 	DB $22
C8AB  87                05019 	DB $87
C8AC  54                05020 	DB $54
C8AD  01                05021 	DB $01
C8AE  61                05022 	DB $61
C8AF  01                05023 	DB $01
C8B0                    05024 	; 	DATA BYTE $28,$c1,$c3,$f8,$a7,$22,$96,$00
C8B0  28                05025 	DB $28
C8B1  C1                05026 	DB $C1
C8B2  C3                05027 	DB $C3
C8B3  F8                05028 	DB $F8
C8B4  A7                05029 	DB $A7
C8B5  22                05030 	DB $22
C8B6  96                05031 	DB $96
C8B7  00                05032 	DB $00
C8B8                    05033 	; 	DATA BYTE $13,$31,$20,$60,$02,$4b,$28,$c0
C8B8  13                05034 	DB $13
C8B9  31                05035 	DB $31
C8BA  20                05036 	DB $20
C8BB  60                05037 	DB $60
C8BC  02                05038 	DB $02
C8BD  4B                05039 	DB $4B
C8BE  28                05040 	DB $28
C8BF  C0                05041 	DB $C0
C8C0                    05042 	; 	DATA BYTE $48,$e2,$b2,$10,$d3,$12,$22,$65
C8C0  48                05043 	DB $48
C8C1  E2                05044 	DB $E2
C8C2  B2                05045 	DB $B2
C8C3  10                05046 	DB $10
C8C4  D3                05047 	DB $D3
C8C5  12                05048 	DB $12
C8C6  22                05049 	DB $22
C8C7  65                05050 	DB $65
C8C8                    05051 	; 	DATA BYTE $cb,$a2,$8b,$da,$89,$f2,$6b,$91
C8C8  CB                05052 	DB $CB
C8C9  A2                05053 	DB $A2
C8CA  8B                05054 	DB $8B
C8CB  DA                05055 	DB $DA
C8CC  89                05056 	DB $89
C8CD  F2                05057 	DB $F2
C8CE  6B                05058 	DB $6B
C8CF  91                05059 	DB $91
C8D0                    05060 	; 	DATA BYTE $fa,$00,$fb,$43,$18,$0c,$6d,$1d
C8D0  FA                05061 	DB $FA
C8D1  00                05062 	DB $00
C8D2  FB                05063 	DB $FB
C8D3  43                05064 	DB $43
C8D4  18                05065 	DB $18
C8D5  0C                05066 	DB $0C
C8D6  6D                05067 	DB $6D
C8D7  1D                05068 	DB $1D
C8D8                    05069 	; 	DATA BYTE $b0,$0f,$a9,$36,$01,$c0,$a5,$3c
C8D8  B0                05070 	DB $B0
C8D9  0F                05071 	DB $0F
C8DA  A9                05072 	DB $A9
C8DB  36                05073 	DB $36
C8DC  01                05074 	DB $01
C8DD  C0                05075 	DB $C0
C8DE  A5                05076 	DB $A5
C8DF  3C                05077 	DB $3C
C8E0                    05078 	; 	DATA BYTE $22,$44,$df,$5c,$01,$36,$60,$54
C8E0  22                05079 	DB $22
C8E1  44                05080 	DB $44
C8E2  DF                05081 	DB $DF
C8E3  5C                05082 	DB $5C
C8E4  01                05083 	DB $01
C8E5  36                05084 	DB $36
C8E6  60                05085 	DB $60
C8E7  54                05086 	DB $54
C8E8                    05087 	; 	DATA BYTE $9f,$e7,$ab,$6d,$a5,$a1,$ee,$7c
C8E8  9F                05088 	DB $9F
C8E9  E7                05089 	DB $E7
C8EA  AB                05090 	DB $AB
C8EB  6D                05091 	DB $6D
C8EC  A5                05092 	DB $A5
C8ED  A1                05093 	DB $A1
C8EE  EE                05094 	DB $EE
C8EF  7C                05095 	DB $7C
C8F0                    05096 	; 	DATA BYTE $0b,$c7,$87,$e3,$1f,$54,$22,$2d
C8F0  0B                05097 	DB $0B
C8F1  C7                05098 	DB $C7
C8F2  87                05099 	DB $87
C8F3  E3                05100 	DB $E3
C8F4  1F                05101 	DB $1F
C8F5  54                05102 	DB $54
C8F6  22                05103 	DB $22
C8F7  2D                05104 	DB $2D
C8F8                    05105 	; 	DATA BYTE $75,$c5,$46,$0a,$87,$07,$83,$95
C8F8  75                05106 	DB $75
C8F9  C5                05107 	DB $C5
C8FA  46                05108 	DB $46
C8FB  0A                05109 	DB $0A
C8FC  87                05110 	DB $87
C8FD  07                05111 	DB $07
C8FE  83                05112 	DB $83
C8FF  95                05113 	DB $95
C900                    05114 	; 	DATA BYTE $1d,$ef,$45,$31,$ab,$22,$45,$fc
C900  1D                05115 	DB $1D
C901  EF                05116 	DB $EF
C902  45                05117 	DB $45
C903  31                05118 	DB $31
C904  AB                05119 	DB $AB
C905  22                05120 	DB $22
C906  45                05121 	DB $45
C907  FC                05122 	DB $FC
C908                    05123 	; 	DATA BYTE $d7,$8f,$0a,$38,$c9,$f8,$50,$ba
C908  D7                05124 	DB $D7
C909  8F                05125 	DB $8F
C90A  0A                05126 	DB $0A
C90B  38                05127 	DB $38
C90C  C9                05128 	DB $C9
C90D  F8                05129 	DB $F8
C90E  50                05130 	DB $50
C90F  BA                05131 	DB $BA
C910                    05132 	; 	DATA BYTE $35,$07,$88,$03,$cf,$ff,$80,$af
C910  35                05133 	DB $35
C911  07                05134 	DB $07
C912  88                05135 	DB $88
C913  03                05136 	DB $03
C914  CF                05137 	DB $CF
C915  FF                05138 	DB $FF
C916  80                05139 	DB $80
C917  AF                05140 	DB $AF
C918                    05141 	; 	DATA BYTE $3f,$14,$94,$e1,$08,$14,$11,$28
C918  3F                05142 	DB $3F
C919  14                05143 	DB $14
C91A  94                05144 	DB $94
C91B  E1                05145 	DB $E1
C91C  08                05146 	DB $08
C91D  14                05147 	DB $14
C91E  11                05148 	DB $11
C91F  28                05149 	DB $28
C920                    05150 	; 	DATA BYTE $10,$ff,$93,$f6,$be,$a0,$f0,$dc
C920  10                05151 	DB $10
C921  FF                05152 	DB $FF
C922  93                05153 	DB $93
C923  F6                05154 	DB $F6
C924  BE                05155 	DB $BE
C925  A0                05156 	DB $A0
C926  F0                05157 	DB $F0
C927  DC                05158 	DB $DC
C928                    05159 	; 	DATA BYTE $2c,$bf,$bf,$c2,$a0,$00,$db,$31
C928  2C                05160 	DB $2C
C929  BF                05161 	DB $BF
C92A  BF                05162 	DB $BF
C92B  C2                05163 	DB $C2
C92C  A0                05164 	DB $A0
C92D  00                05165 	DB $00
C92E  DB                05166 	DB $DB
C92F  31                05167 	DB $31
C930                    05168 	; 	DATA BYTE $8c,$cc,$00,$9c,$00,$f9,$1b,$5f
C930  8C                05169 	DB $8C
C931  CC                05170 	DB $CC
C932  00                05171 	DB $00
C933  9C                05172 	DB $9C
C934  00                05173 	DB $00
C935  F9                05174 	DB $F9
C936  1B                05175 	DB $1B
C937  5F                05176 	DB $5F
C938                    05177 	; 	DATA BYTE $7f,$86,$00,$d5,$fa,$f5,$56,$21
C938  7F                05178 	DB $7F
C939  86                05179 	DB $86
C93A  00                05180 	DB $00
C93B  D5                05181 	DB $D5
C93C  FA                05182 	DB $FA
C93D  F5                05183 	DB $F5
C93E  56                05184 	DB $56
C93F  21                05185 	DB $21
C940                    05186 	; 	DATA BYTE $e3,$d7,$50,$ef,$cd,$d7,$a1,$7f
C940  E3                05187 	DB $E3
C941  D7                05188 	DB $D7
C942  50                05189 	DB $50
C943  EF                05190 	DB $EF
C944  CD                05191 	DB $CD
C945  D7                05192 	DB $D7
C946  A1                05193 	DB $A1
C947  7F                05194 	DB $7F
C948                    05195 	; 	DATA BYTE $ff,$8e,$27,$aa,$bf,$f7,$84,$80
C948  FF                05196 	DB $FF
C949  8E                05197 	DB $8E
C94A  27                05198 	DB $27
C94B  AA                05199 	DB $AA
C94C  BF                05200 	DB $BF
C94D  F7                05201 	DB $F7
C94E  84                05202 	DB $84
C94F  80                05203 	DB $80
C950                    05204 	; 	DATA BYTE $b1,$48,$10,$b1,$62,$eb,$a7,$49
C950  B1                05205 	DB $B1
C951  48                05206 	DB $48
C952  10                05207 	DB $10
C953  B1                05208 	DB $B1
C954  62                05209 	DB $62
C955  EB                05210 	DB $EB
C956  A7                05211 	DB $A7
C957  49                05212 	DB $49
C958                    05213 	; 	DATA BYTE $c5,$2d,$0f,$87,$00,$0b,$a3,$11
C958  C5                05214 	DB $C5
C959  2D                05215 	DB $2D
C95A  0F                05216 	DB $0F
C95B  87                05217 	DB $87
C95C  00                05218 	DB $00
C95D  0B                05219 	DB $0B
C95E  A3                05220 	DB $A3
C95F  11                05221 	DB $11
C960                    05222 	; 	DATA BYTE $49,$02,$06,$1e,$06,$88,$0b,$20
C960  49                05223 	DB $49
C961  02                05224 	DB $02
C962  06                05225 	DB $06
C963  1E                05226 	DB $1E
C964  06                05227 	DB $06
C965  88                05228 	DB $88
C966  0B                05229 	DB $0B
C967  20                05230 	DB $20
C968                    05231 	; 	DATA BYTE $b8,$c5,$f0,$30,$21,$06,$dc,$17
C968  B8                05232 	DB $B8
C969  C5                05233 	DB $C5
C96A  F0                05234 	DB $F0
C96B  30                05235 	DB $30
C96C  21                05236 	DB $21
C96D  06                05237 	DB $06
C96E  DC                05238 	DB $DC
C96F  17                05239 	DB $17
C970                    05240 	; 	DATA BYTE $e5,$9f,$f6,$00,$21,$9d,$54,$2a
C970  E5                05241 	DB $E5
C971  9F                05242 	DB $9F
C972  F6                05243 	DB $F6
C973  00                05244 	DB $00
C974  21                05245 	DB $21
C975  9D                05246 	DB $9D
C976  54                05247 	DB $54
C977  2A                05248 	DB $2A
C978                    05249 	; 	DATA BYTE $80,$d3,$08,$f0,$93,$74,$b5,$0d
C978  80                05250 	DB $80
C979  D3                05251 	DB $D3
C97A  08                05252 	DB $08
C97B  F0                05253 	DB $F0
C97C  93                05254 	DB $93
C97D  74                05255 	DB $74
C97E  B5                05256 	DB $B5
C97F  0D                05257 	DB $0D
C980                    05258 	; 	DATA BYTE $e8,$cf,$c9,$5b,$82,$ec,$00,$ab
C980  E8                05259 	DB $E8
C981  CF                05260 	DB $CF
C982  C9                05261 	DB $C9
C983  5B                05262 	DB $5B
C984  82                05263 	DB $82
C985  EC                05264 	DB $EC
C986  00                05265 	DB $00
C987  AB                05266 	DB $AB
C988                    05267 	; 	DATA BYTE $45,$40,$63,$5d,$65,$5e,$55,$4b
C988  45                05268 	DB $45
C989  40                05269 	DB $40
C98A  63                05270 	DB $63
C98B  5D                05271 	DB $5D
C98C  65                05272 	DB $65
C98D  5E                05273 	DB $5E
C98E  55                05274 	DB $55
C98F  4B                05275 	DB $4B
C990                    05276 	; 	DATA BYTE $01,$81,$b4,$3f,$aa,$18,$b1,$90
C990  01                05277 	DB $01
C991  81                05278 	DB $81
C992  B4                05279 	DB $B4
C993  3F                05280 	DB $3F
C994  AA                05281 	DB $AA
C995  18                05282 	DB $18
C996  B1                05283 	DB $B1
C997  90                05284 	DB $90
C998                    05285 	; 	DATA BYTE $fc,$f8,$87,$bd,$37,$bb,$70,$01
C998  FC                05286 	DB $FC
C999  F8                05287 	DB $F8
C99A  87                05288 	DB $87
C99B  BD                05289 	DB $BD
C99C  37                05290 	DB $37
C99D  BB                05291 	DB $BB
C99E  70                05292 	DB $70
C99F  01                05293 	DB $01
C9A0                    05294 	; 	DATA BYTE $bb,$f7,$03,$84,$f7,$fe,$c4,$d5
C9A0  BB                05295 	DB $BB
C9A1  F7                05296 	DB $F7
C9A2  03                05297 	DB $03
C9A3  84                05298 	DB $84
C9A4  F7                05299 	DB $F7
C9A5  FE                05300 	DB $FE
C9A6  C4                05301 	DB $C4
C9A7  D5                05302 	DB $D5
C9A8                    05303 	; 	DATA BYTE $73,$c0,$80,$5b,$3d,$27,$00,$9c
C9A8  73                05304 	DB $73
C9A9  C0                05305 	DB $C0
C9AA  80                05306 	DB $80
C9AB  5B                05307 	DB $5B
C9AC  3D                05308 	DB $3D
C9AD  27                05309 	DB $27
C9AE  00                05310 	DB $00
C9AF  9C                05311 	DB $9C
C9B0                    05312 	; 	DATA BYTE $00,$fc,$43,$27,$ed,$3c,$50,$ea
C9B0  00                05313 	DB $00
C9B1  FC                05314 	DB $FC
C9B2  43                05315 	DB $43
C9B3  27                05316 	DB $27
C9B4  ED                05317 	DB $ED
C9B5  3C                05318 	DB $3C
C9B6  50                05319 	DB $50
C9B7  EA                05320 	DB $EA
C9B8                    05321 	; 	DATA BYTE $ef,$b3,$af,$5f,$34,$8f,$fd,$fa
C9B8  EF                05322 	DB $EF
C9B9  B3                05323 	DB $B3
C9BA  AF                05324 	DB $AF
C9BB  5F                05325 	DB $5F
C9BC  34                05326 	DB $34
C9BD  8F                05327 	DB $8F
C9BE  FD                05328 	DB $FD
C9BF  FA                05329 	DB $FA
C9C0                    05330 	; 	DATA BYTE $d1,$30,$ab,$14,$89,$0f,$7f,$b1
C9C0  D1                05331 	DB $D1
C9C1  30                05332 	DB $30
C9C2  AB                05333 	DB $AB
C9C3  14                05334 	DB $14
C9C4  89                05335 	DB $89
C9C5  0F                05336 	DB $0F
C9C6  7F                05337 	DB $7F
C9C7  B1                05338 	DB $B1
C9C8                    05339 	; 	DATA BYTE $07,$9e,$68,$01,$07,$7f,$c7,$d3
C9C8  07                05340 	DB $07
C9C9  9E                05341 	DB $9E
C9CA  68                05342 	DB $68
C9CB  01                05343 	DB $01
C9CC  07                05344 	DB $07
C9CD  7F                05345 	DB $7F
C9CE  C7                05346 	DB $C7
C9CF  D3                05347 	DB $D3
C9D0                    05348 	; 	DATA BYTE $b8,$e9,$b8,$d0,$9d,$31,$d8,$bc
C9D0  B8                05349 	DB $B8
C9D1  E9                05350 	DB $E9
C9D2  B8                05351 	DB $B8
C9D3  D0                05352 	DB $D0
C9D4  9D                05353 	DB $9D
C9D5  31                05354 	DB $31
C9D6  D8                05355 	DB $D8
C9D7  BC                05356 	DB $BC
C9D8                    05357 	; 	DATA BYTE $ce,$01,$05,$a0,$fc,$1b,$f1,$7e
C9D8  CE                05358 	DB $CE
C9D9  01                05359 	DB $01
C9DA  05                05360 	DB $05
C9DB  A0                05361 	DB $A0
C9DC  FC                05362 	DB $FC
C9DD  1B                05363 	DB $1B
C9DE  F1                05364 	DB $F1
C9DF  7E                05365 	DB $7E
C9E0                    05366 	; 	DATA BYTE $0b,$cf,$44,$0d,$60,$bf,$bf,$f0
C9E0  0B                05367 	DB $0B
C9E1  CF                05368 	DB $CF
C9E2  44                05369 	DB $44
C9E3  0D                05370 	DB $0D
C9E4  60                05371 	DB $60
C9E5  BF                05372 	DB $BF
C9E6  BF                05373 	DB $BF
C9E7  F0                05374 	DB $F0
C9E8                    05375 	; 	DATA BYTE $ff,$38,$0a,$c7,$17,$1c,$00,$87
C9E8  FF                05376 	DB $FF
C9E9  38                05377 	DB $38
C9EA  0A                05378 	DB $0A
C9EB  C7                05379 	DB $C7
C9EC  17                05380 	DB $17
C9ED  1C                05381 	DB $1C
C9EE  00                05382 	DB $00
C9EF  87                05383 	DB $87
C9F0                    05384 	; 	DATA BYTE $af,$17,$d5,$37,$87,$c9,$d5,$c1
C9F0  AF                05385 	DB $AF
C9F1  17                05386 	DB $17
C9F2  D5                05387 	DB $D5
C9F3  37                05388 	DB $37
C9F4  87                05389 	DB $87
C9F5  C9                05390 	DB $C9
C9F6  D5                05391 	DB $D5
C9F7  C1                05392 	DB $C1
C9F8                    05393 	; 	DATA BYTE $ff,$d8,$00,$a8,$55,$1e,$1b,$a5
C9F8  FF                05394 	DB $FF
C9F9  D8                05395 	DB $D8
C9FA  00                05396 	DB $00
C9FB  A8                05397 	DB $A8
C9FC  55                05398 	DB $55
C9FD  1E                05399 	DB $1E
C9FE  1B                05400 	DB $1B
C9FF  A5                05401 	DB $A5
CA00                    05402 	; 	DATA BYTE $30,$13,$61,$5b,$ff,$c1,$ba,$82
CA00  30                05403 	DB $30
CA01  13                05404 	DB $13
CA02  61                05405 	DB $61
CA03  5B                05406 	DB $5B
CA04  FF                05407 	DB $FF
CA05  C1                05408 	DB $C1
CA06  BA                05409 	DB $BA
CA07  82                05410 	DB $82
CA08                    05411 	; 	DATA BYTE $91,$d0,$3c,$a8,$51,$e7,$14,$40
CA08  91                05412 	DB $91
CA09  D0                05413 	DB $D0
CA0A  3C                05414 	DB $3C
CA0B  A8                05415 	DB $A8
CA0C  51                05416 	DB $51
CA0D  E7                05417 	DB $E7
CA0E  14                05418 	DB $14
CA0F  40                05419 	DB $40
CA10                    05420 	; 	DATA BYTE $ef,$50,$84,$f6,$20,$82,$85,$05
CA10  EF                05421 	DB $EF
CA11  50                05422 	DB $50
CA12  84                05423 	DB $84
CA13  F6                05424 	DB $F6
CA14  20                05425 	DB $20
CA15  82                05426 	DB $82
CA16  85                05427 	DB $85
CA17  05                05428 	DB $05
CA18                    05429 	; 	DATA BYTE $9b,$c2,$cd,$3f,$0f,$cf,$82,$f5
CA18  9B                05430 	DB $9B
CA19  C2                05431 	DB $C2
CA1A  CD                05432 	DB $CD
CA1B  3F                05433 	DB $3F
CA1C  0F                05434 	DB $0F
CA1D  CF                05435 	DB $CF
CA1E  82                05436 	DB $82
CA1F  F5                05437 	DB $F5
CA20                    05438 	; 	DATA BYTE $03,$63,$20,$05,$fe,$0d,$4b,$e8
CA20  03                05439 	DB $03
CA21  63                05440 	DB $63
CA22  20                05441 	DB $20
CA23  05                05442 	DB $05
CA24  FE                05443 	DB $FE
CA25  0D                05444 	DB $0D
CA26  4B                05445 	DB $4B
CA27  E8                05446 	DB $E8
CA28                    05447 	; 	DATA BYTE $e6,$88,$96,$01,$03,$66,$82,$f8
CA28  E6                05448 	DB $E6
CA29  88                05449 	DB $88
CA2A  96                05450 	DB $96
CA2B  01                05451 	DB $01
CA2C  03                05452 	DB $03
CA2D  66                05453 	DB $66
CA2E  82                05454 	DB $82
CA2F  F8                05455 	DB $F8
CA30                    05456 	; 	DATA BYTE $3f,$1f,$05,$a7,$ab,$80,$f7,$bf
CA30  3F                05457 	DB $3F
CA31  1F                05458 	DB $1F
CA32  05                05459 	DB $05
CA33  A7                05460 	DB $A7
CA34  AB                05461 	DB $AB
CA35  80                05462 	DB $80
CA36  F7                05463 	DB $F7
CA37  BF                05464 	DB $BF
CA38                    05465 	; 	DATA BYTE $47,$5f,$92,$f2,$9f,$c5,$02,$a8
CA38  47                05466 	DB $47
CA39  5F                05467 	DB $5F
CA3A  92                05468 	DB $92
CA3B  F2                05469 	DB $F2
CA3C  9F                05470 	DB $9F
CA3D  C5                05471 	DB $C5
CA3E  02                05472 	DB $02
CA3F  A8                05473 	DB $A8
CA40                    05474 	; 	DATA BYTE $10,$a5,$72,$a5,$68,$b5,$b8,$b1
CA40  10                05475 	DB $10
CA41  A5                05476 	DB $A5
CA42  72                05477 	DB $72
CA43  A5                05478 	DB $A5
CA44  68                05479 	DB $68
CA45  B5                05480 	DB $B5
CA46  B8                05481 	DB $B8
CA47  B1                05482 	DB $B1
CA48                    05483 	; 	DATA BYTE $d8,$19,$7f,$25,$fe,$7f,$cd,$bf
CA48  D8                05484 	DB $D8
CA49  19                05485 	DB $19
CA4A  7F                05486 	DB $7F
CA4B  25                05487 	DB $25
CA4C  FE                05488 	DB $FE
CA4D  7F                05489 	DB $7F
CA4E  CD                05490 	DB $CD
CA4F  BF                05491 	DB $BF
CA50                    05492 	; 	DATA BYTE $b6,$3e,$f5,$97,$39,$d7,$ac,$00
CA50  B6                05493 	DB $B6
CA51  3E                05494 	DB $3E
CA52  F5                05495 	DB $F5
CA53  97                05496 	DB $97
CA54  39                05497 	DB $39
CA55  D7                05498 	DB $D7
CA56  AC                05499 	DB $AC
CA57  00                05500 	DB $00
CA58                    05501 	; 	DATA BYTE $d7,$10,$ef,$57,$05,$04,$98,$00
CA58  D7                05502 	DB $D7
CA59  10                05503 	DB $10
CA5A  EF                05504 	DB $EF
CA5B  57                05505 	DB $57
CA5C  05                05506 	DB $05
CA5D  04                05507 	DB $04
CA5E  98                05508 	DB $98
CA5F  00                05509 	DB $00
CA60                    05510 	; 	DATA BYTE $05,$99,$e9,$2a,$e0,$10,$15,$a3
CA60  05                05511 	DB $05
CA61  99                05512 	DB $99
CA62  E9                05513 	DB $E9
CA63  2A                05514 	DB $2A
CA64  E0                05515 	DB $E0
CA65  10                05516 	DB $10
CA66  15                05517 	DB $15
CA67  A3                05518 	DB $A3
CA68                    05519 	; 	DATA BYTE $c8,$60,$40,$00,$f8,$c0,$f7,$01
CA68  C8                05520 	DB $C8
CA69  60                05521 	DB $60
CA6A  40                05522 	DB $40
CA6B  00                05523 	DB $00
CA6C  F8                05524 	DB $F8
CA6D  C0                05525 	DB $C0
CA6E  F7                05526 	DB $F7
CA6F  01                05527 	DB $01
CA70                    05528 	; 	DATA BYTE $f7,$02,$e2,$ff,$70,$dc,$07,$78
CA70  F7                05529 	DB $F7
CA71  02                05530 	DB $02
CA72  E2                05531 	DB $E2
CA73  FF                05532 	DB $FF
CA74  70                05533 	DB $70
CA75  DC                05534 	DB $DC
CA76  07                05535 	DB $07
CA77  78                05536 	DB $78
CA78                    05537 	; 	DATA BYTE $78,$38,$38,$07,$ff,$17,$d3,$1e
CA78  78                05538 	DB $78
CA79  38                05539 	DB $38
CA7A  38                05540 	DB $38
CA7B  07                05541 	DB $07
CA7C  FF                05542 	DB $FF
CA7D  17                05543 	DB $17
CA7E  D3                05544 	DB $D3
CA7F  1E                05545 	DB $1E
CA80                    05546 	; 	DATA BYTE $8b,$3e,$09,$11,$8f,$0e,$c4,$d6
CA80  8B                05547 	DB $8B
CA81  3E                05548 	DB $3E
CA82  09                05549 	DB $09
CA83  11                05550 	DB $11
CA84  8F                05551 	DB $8F
CA85  0E                05552 	DB $0E
CA86  C4                05553 	DB $C4
CA87  D6                05554 	DB $D6
CA88                    05555 	; 	DATA BYTE $a0,$5e,$e3,$94,$2c,$be,$30,$5f
CA88  A0                05556 	DB $A0
CA89  5E                05557 	DB $5E
CA8A  E3                05558 	DB $E3
CA8B  94                05559 	DB $94
CA8C  2C                05560 	DB $2C
CA8D  BE                05561 	DB $BE
CA8E  30                05562 	DB $30
CA8F  5F                05563 	DB $5F
CA90                    05564 	; 	DATA BYTE $37,$04,$f8,$43,$f4,$f3,$6a,$fd
CA90  37                05565 	DB $37
CA91  04                05566 	DB $04
CA92  F8                05567 	DB $F8
CA93  43                05568 	DB $43
CA94  F4                05569 	DB $F4
CA95  F3                05570 	DB $F3
CA96  6A                05571 	DB $6A
CA97  FD                05572 	DB $FD
CA98                    05573 	; 	DATA BYTE $a8,$cd,$44,$14,$ef,$55,$d7,$60
CA98  A8                05574 	DB $A8
CA99  CD                05575 	DB $CD
CA9A  44                05576 	DB $44
CA9B  14                05577 	DB $14
CA9C  EF                05578 	DB $EF
CA9D  55                05579 	DB $55
CA9E  D7                05580 	DB $D7
CA9F  60                05581 	DB $60
CAA0                    05582 	; 	DATA BYTE $d9,$68,$1c,$88,$05,$4c,$26,$03
CAA0  D9                05583 	DB $D9
CAA1  68                05584 	DB $68
CAA2  1C                05585 	DB $1C
CAA3  88                05586 	DB $88
CAA4  05                05587 	DB $05
CAA5  4C                05588 	DB $4C
CAA6  26                05589 	DB $26
CAA7  03                05590 	DB $03
CAA8                    05591 	; 	DATA BYTE $09,$05,$1e,$90,$0d,$99,$9e,$c0
CAA8  09                05592 	DB $09
CAA9  05                05593 	DB $05
CAAA  1E                05594 	DB $1E
CAAB  90                05595 	DB $90
CAAC  0D                05596 	DB $0D
CAAD  99                05597 	DB $99
CAAE  9E                05598 	DB $9E
CAAF  C0                05599 	DB $C0
CAB0                    05600 	; 	DATA BYTE $ff,$11,$91,$ff,$27,$b3,$07,$f0
CAB0  FF                05601 	DB $FF
CAB1  11                05602 	DB $11
CAB2  91                05603 	DB $91
CAB3  FF                05604 	DB $FF
CAB4  27                05605 	DB $27
CAB5  B3                05606 	DB $B3
CAB6  07                05607 	DB $07
CAB7  F0                05608 	DB $F0
CAB8                    05609 	; 	DATA BYTE $d0,$8c,$2b,$c7,$f8,$09,$ea,$3f
CAB8  D0                05610 	DB $D0
CAB9  8C                05611 	DB $8C
CABA  2B                05612 	DB $2B
CABB  C7                05613 	DB $C7
CABC  F8                05614 	DB $F8
CABD  09                05615 	DB $09
CABE  EA                05616 	DB $EA
CABF  3F                05617 	DB $3F
CAC0                    05618 	; 	DATA BYTE $e3,$bd,$3e,$03,$05,$6f,$e0,$df
CAC0  E3                05619 	DB $E3
CAC1  BD                05620 	DB $BD
CAC2  3E                05621 	DB $3E
CAC3  03                05622 	DB $03
CAC4  05                05623 	DB $05
CAC5  6F                05624 	DB $6F
CAC6  E0                05625 	DB $E0
CAC7  DF                05626 	DB $DF
CAC8                    05627 	; 	DATA BYTE $c0,$e1,$c9,$97,$d8,$ef,$2c,$79
CAC8  C0                05628 	DB $C0
CAC9  E1                05629 	DB $E1
CACA  C9                05630 	DB $C9
CACB  97                05631 	DB $97
CACC  D8                05632 	DB $D8
CACD  EF                05633 	DB $EF
CACE  2C                05634 	DB $2C
CACF  79                05635 	DB $79
CAD0                    05636 	; 	DATA BYTE $93,$35,$75,$f3,$63,$82,$57,$8b
CAD0  93                05637 	DB $93
CAD1  35                05638 	DB $35
CAD2  75                05639 	DB $75
CAD3  F3                05640 	DB $F3
CAD4  63                05641 	DB $63
CAD5  82                05642 	DB $82
CAD6  57                05643 	DB $57
CAD7  8B                05644 	DB $8B
CAD8                    05645 	; 	DATA BYTE $0c,$8f,$aa,$75,$bc,$b1,$aa,$df
CAD8  0C                05646 	DB $0C
CAD9  8F                05647 	DB $8F
CADA  AA                05648 	DB $AA
CADB  75                05649 	DB $75
CADC  BC                05650 	DB $BC
CADD  B1                05651 	DB $B1
CADE  AA                05652 	DB $AA
CADF  DF                05653 	DB $DF
CAE0                    05654 	; 	DATA BYTE $85,$8a,$ee,$3e,$29,$f0,$31,$d9
CAE0  85                05655 	DB $85
CAE1  8A                05656 	DB $8A
CAE2  EE                05657 	DB $EE
CAE3  3E                05658 	DB $3E
CAE4  29                05659 	DB $29
CAE5  F0                05660 	DB $F0
CAE6  31                05661 	DB $31
CAE7  D9                05662 	DB $D9
CAE8                    05663 	; 	DATA BYTE $a7,$85,$06,$86,$84,$00,$09,$92
CAE8  A7                05664 	DB $A7
CAE9  85                05665 	DB $85
CAEA  06                05666 	DB $06
CAEB  86                05667 	DB $86
CAEC  84                05668 	DB $84
CAED  00                05669 	DB $00
CAEE  09                05670 	DB $09
CAEF  92                05671 	DB $92
CAF0                    05672 	; 	DATA BYTE $c3,$00,$bf,$96,$00,$9d,$cc,$00
CAF0  C3                05673 	DB $C3
CAF1  00                05674 	DB $00
CAF2  BF                05675 	DB $BF
CAF3  96                05676 	DB $96
CAF4  00                05677 	DB $00
CAF5  9D                05678 	DB $9D
CAF6  CC                05679 	DB $CC
CAF7  00                05680 	DB $00
CAF8                    05681 	; 	DATA BYTE $08,$00,$d6,$ff,$a5,$08,$77,$84
CAF8  08                05682 	DB $08
CAF9  00                05683 	DB $00
CAFA  D6                05684 	DB $D6
CAFB  FF                05685 	DB $FF
CAFC  A5                05686 	DB $A5
CAFD  08                05687 	DB $08
CAFE  77                05688 	DB $77
CAFF  84                05689 	DB $84
CB00                    05690 	; 	DATA BYTE $df,$a0,$20,$02,$7f,$c2,$04,$01
CB00  DF                05691 	DB $DF
CB01  A0                05692 	DB $A0
CB02  20                05693 	DB $20
CB03  02                05694 	DB $02
CB04  7F                05695 	DB $7F
CB05  C2                05696 	DB $C2
CB06  04                05697 	DB $04
CB07  01                05698 	DB $01
CB08                    05699 	; 	DATA BYTE $f8,$54,$7f,$d7,$c6,$31,$8f,$0a
CB08  F8                05700 	DB $F8
CB09  54                05701 	DB $54
CB0A  7F                05702 	DB $7F
CB0B  D7                05703 	DB $D7
CB0C  C6                05704 	DB $C6
CB0D  31                05705 	DB $31
CB0E  8F                05706 	DB $8F
CB0F  0A                05707 	DB $0A
CB10                    05708 	; 	DATA BYTE $fb,$fd,$bf,$d3,$22,$bf,$13,$7d
CB10  FB                05709 	DB $FB
CB11  FD                05710 	DB $FD
CB12  BF                05711 	DB $BF
CB13  D3                05712 	DB $D3
CB14  22                05713 	DB $22
CB15  BF                05714 	DB $BF
CB16  13                05715 	DB $13
CB17  7D                05716 	DB $7D
CB18                    05717 	; 	DATA BYTE $be,$5d,$97,$63,$8f,$f4,$a7,$e7
CB18  BE                05718 	DB $BE
CB19  5D                05719 	DB $5D
CB1A  97                05720 	DB $97
CB1B  63                05721 	DB $63
CB1C  8F                05722 	DB $8F
CB1D  F4                05723 	DB $F4
CB1E  A7                05724 	DB $A7
CB1F  E7                05725 	DB $E7
CB20                    05726 	; 	DATA BYTE $cd,$16,$a0,$51,$13,$98,$d5,$50
CB20  CD                05727 	DB $CD
CB21  16                05728 	DB $16
CB22  A0                05729 	DB $A0
CB23  51                05730 	DB $51
CB24  13                05731 	DB $13
CB25  98                05732 	DB $98
CB26  D5                05733 	DB $D5
CB27  50                05734 	DB $50
CB28                    05735 	; 	DATA BYTE $0d,$a2,$54,$0a,$01,$94,$bf,$20
CB28  0D                05736 	DB $0D
CB29  A2                05737 	DB $A2
CB2A  54                05738 	DB $54
CB2B  0A                05739 	DB $0A
CB2C  01                05740 	DB $01
CB2D  94                05741 	DB $94
CB2E  BF                05742 	DB $BF
CB2F  20                05743 	DB $20
CB30                    05744 	; 	DATA BYTE $10,$02,$08,$4c,$8e,$47,$a3,$11
CB30  10                05745 	DB $10
CB31  02                05746 	DB $02
CB32  08                05747 	DB $08
CB33  4C                05748 	DB $4C
CB34  8E                05749 	DB $8E
CB35  47                05750 	DB $47
CB36  A3                05751 	DB $A3
CB37  11                05752 	DB $11
CB38                    05753 	; 	DATA BYTE $dd,$2c,$ae,$a4,$07,$87,$2d,$fd
CB38  DD                05754 	DB $DD
CB39  2C                05755 	DB $2C
CB3A  AE                05756 	DB $AE
CB3B  A4                05757 	DB $A4
CB3C  07                05758 	DB $07
CB3D  87                05759 	DB $87
CB3E  2D                05760 	DB $2D
CB3F  FD                05761 	DB $FD
CB40                    05762 	; 	DATA BYTE $88,$c7,$f0,$01,$2a,$f1,$f3,$ff
CB40  88                05763 	DB $88
CB41  C7                05764 	DB $C7
CB42  F0                05765 	DB $F0
CB43  01                05766 	DB $01
CB44  2A                05767 	DB $2A
CB45  F1                05768 	DB $F1
CB46  F3                05769 	DB $F3
CB47  FF                05770 	DB $FF
CB48                    05771 	; 	DATA BYTE $06,$ce,$fe,$1e,$0e,$0f,$d8,$00
CB48  06                05772 	DB $06
CB49  CE                05773 	DB $CE
CB4A  FE                05774 	DB $FE
CB4B  1E                05775 	DB $1E
CB4C  0E                05776 	DB $0E
CB4D  0F                05777 	DB $0F
CB4E  D8                05778 	DB $D8
CB4F  00                05779 	DB $00
CB50                    05780 	; 	DATA BYTE $b3,$76,$1c,$71,$a3,$0f,$17,$1f
CB50  B3                05781 	DB $B3
CB51  76                05782 	DB $76
CB52  1C                05783 	DB $1C
CB53  71                05784 	DB $71
CB54  A3                05785 	DB $A3
CB55  0F                05786 	DB $0F
CB56  17                05787 	DB $17
CB57  1F                05788 	DB $1F
CB58                    05789 	; 	DATA BYTE $b9,$31,$77,$ab,$f7,$39,$17,$ff
CB58  B9                05790 	DB $B9
CB59  31                05791 	DB $31
CB5A  77                05792 	DB $77
CB5B  AB                05793 	DB $AB
CB5C  F7                05794 	DB $F7
CB5D  39                05795 	DB $39
CB5E  17                05796 	DB $17
CB5F  FF                05797 	DB $FF
CB60                    05798 	; 	DATA BYTE $e1,$00,$02,$17,$dd,$87,$19,$03
CB60  E1                05799 	DB $E1
CB61  00                05800 	DB $00
CB62  02                05801 	DB $02
CB63  17                05802 	DB $17
CB64  DD                05803 	DB $DD
CB65  87                05804 	DB $87
CB66  19                05805 	DB $19
CB67  03                05806 	DB $03
CB68                    05807 	; 	DATA BYTE $ae,$5f,$d1,$d0,$f5,$4b,$8f,$18
CB68  AE                05808 	DB $AE
CB69  5F                05809 	DB $5F
CB6A  D1                05810 	DB $D1
CB6B  D0                05811 	DB $D0
CB6C  F5                05812 	DB $F5
CB6D  4B                05813 	DB $4B
CB6E  8F                05814 	DB $8F
CB6F  18                05815 	DB $18
CB70                    05816 	; 	DATA BYTE $93,$75,$fb,$f7,$b1,$07,$83,$c1
CB70  93                05817 	DB $93
CB71  75                05818 	DB $75
CB72  FB                05819 	DB $FB
CB73  F7                05820 	DB $F7
CB74  B1                05821 	DB $B1
CB75  07                05822 	DB $07
CB76  83                05823 	DB $83
CB77  C1                05824 	DB $C1
CB78                    05825 	; 	DATA BYTE $f5,$ba,$75,$e8,$50,$b0,$fb,$4f
CB78  F5                05826 	DB $F5
CB79  BA                05827 	DB $BA
CB7A  75                05828 	DB $75
CB7B  E8                05829 	DB $E8
CB7C  50                05830 	DB $50
CB7D  B0                05831 	DB $B0
CB7E  FB                05832 	DB $FB
CB7F  4F                05833 	DB $4F
CB80                    05834 	; 	DATA BYTE $99,$b0,$07,$ba,$55,$c3,$89,$00
CB80  99                05835 	DB $99
CB81  B0                05836 	DB $B0
CB82  07                05837 	DB $07
CB83  BA                05838 	DB $BA
CB84  55                05839 	DB $55
CB85  C3                05840 	DB $C3
CB86  89                05841 	DB $89
CB87  00                05842 	DB $00
CB88                    05843 	; 	DATA BYTE $c1,$e3,$03,$cf,$e2,$8f,$0c,$83
CB88  C1                05844 	DB $C1
CB89  E3                05845 	DB $E3
CB8A  03                05846 	DB $03
CB8B  CF                05847 	DB $CF
CB8C  E2                05848 	DB $E2
CB8D  8F                05849 	DB $8F
CB8E  0C                05850 	DB $0C
CB8F  83                05851 	DB $83
CB90                    05852 	; 	DATA BYTE $20,$30,$00,$89,$d6,$b8,$fe,$03
CB90  20                05853 	DB $20
CB91  30                05854 	DB $30
CB92  00                05855 	DB $00
CB93  89                05856 	DB $89
CB94  D6                05857 	DB $D6
CB95  B8                05858 	DB $B8
CB96  FE                05859 	DB $FE
CB97  03                05860 	DB $03
CB98                    05861 	; 	DATA BYTE $fe,$01,$80,$f8,$08,$78,$83,$87
CB98  FE                05862 	DB $FE
CB99  01                05863 	DB $01
CB9A  80                05864 	DB $80
CB9B  F8                05865 	DB $F8
CB9C  08                05866 	DB $08
CB9D  78                05867 	DB $78
CB9E  83                05868 	DB $83
CB9F  87                05869 	DB $87
CBA0                    05870 	; 	DATA BYTE $f9,$18,$a8,$38,$95,$11,$ef,$ff
CBA0  F9                05871 	DB $F9
CBA1  18                05872 	DB $18
CBA2  A8                05873 	DB $A8
CBA3  38                05874 	DB $38
CBA4  95                05875 	DB $95
CBA5  11                05876 	DB $11
CBA6  EF                05877 	DB $EF
CBA7  FF                05878 	DB $FF
CBA8                    05879 	; 	DATA BYTE $9e,$ff,$89,$01,$fa,$fd,$fe,$9a
CBA8  9E                05880 	DB $9E
CBA9  FF                05881 	DB $FF
CBAA  89                05882 	DB $89
CBAB  01                05883 	DB $01
CBAC  FA                05884 	DB $FA
CBAD  FD                05885 	DB $FD
CBAE  FE                05886 	DB $FE
CBAF  9A                05887 	DB $9A
CBB0                    05888 	; 	DATA BYTE $01,$e3,$cf,$64,$cd,$51,$25,$b3
CBB0  01                05889 	DB $01
CBB1  E3                05890 	DB $E3
CBB2  CF                05891 	DB $CF
CBB3  64                05892 	DB $64
CBB4  CD                05893 	DB $CD
CBB5  51                05894 	DB $51
CBB6  25                05895 	DB $25
CBB7  B3                05896 	DB $B3
CBB8                    05897 	; 	DATA BYTE $ad,$0a,$8d,$dc,$37,$79,$08,$d9
CBB8  AD                05898 	DB $AD
CBB9  0A                05899 	DB $0A
CBBA  8D                05900 	DB $8D
CBBB  DC                05901 	DB $DC
CBBC  37                05902 	DB $37
CBBD  79                05903 	DB $79
CBBE  08                05904 	DB $08
CBBF  D9                05905 	DB $D9
CBC0                    05906 	; 	DATA BYTE $28,$e0,$d3,$cd,$50,$20,$c5,$17
CBC0  28                05907 	DB $28
CBC1  E0                05908 	DB $E0
CBC2  D3                05909 	DB $D3
CBC3  CD                05910 	DB $CD
CBC4  50                05911 	DB $50
CBC5  20                05912 	DB $20
CBC6  C5                05913 	DB $C5
CBC7  17                05914 	DB $17
CBC8                    05915 	; 	DATA BYTE $1e,$bb,$e8,$0c,$e9,$4c,$10,$10
CBC8  1E                05916 	DB $1E
CBC9  BB                05917 	DB $BB
CBCA  E8                05918 	DB $E8
CBCB  0C                05919 	DB $0C
CBCC  E9                05920 	DB $E9
CBCD  4C                05921 	DB $4C
CBCE  10                05922 	DB $10
CBCF  10                05923 	DB $10
CBD0                    05924 	; 	DATA BYTE $e2,$0d,$1b,$ef,$9b,$b5,$5a,$e7
CBD0  E2                05925 	DB $E2
CBD1  0D                05926 	DB $0D
CBD2  1B                05927 	DB $1B
CBD3  EF                05928 	DB $EF
CBD4  9B                05929 	DB $9B
CBD5  B5                05930 	DB $B5
CBD6  5A                05931 	DB $5A
CBD7  E7                05932 	DB $E7
CBD8                    05933 	; 	DATA BYTE $e1,$8b,$79,$0f,$00,$60,$4f,$fc
CBD8  E1                05934 	DB $E1
CBD9  8B                05935 	DB $8B
CBDA  79                05936 	DB $79
CBDB  0F                05937 	DB $0F
CBDC  00                05938 	DB $00
CBDD  60                05939 	DB $60
CBDE  4F                05940 	DB $4F
CBDF  FC                05941 	DB $FC
CBE0                    05942 	; 	DATA BYTE $62,$fd,$11,$2b,$57,$db,$a9,$2b
CBE0  62                05943 	DB $62
CBE1  FD                05944 	DB $FD
CBE2  11                05945 	DB $11
CBE3  2B                05946 	DB $2B
CBE4  57                05947 	DB $57
CBE5  DB                05948 	DB $DB
CBE6  A9                05949 	DB $A9
CBE7  2B                05950 	DB $2B
CBE8                    05951 	; 	DATA BYTE $1f,$ef,$06,$55,$fa,$d5,$97,$c1
CBE8  1F                05952 	DB $1F
CBE9  EF                05953 	DB $EF
CBEA  06                05954 	DB $06
CBEB  55                05955 	DB $55
CBEC  FA                05956 	DB $FA
CBED  D5                05957 	DB $D5
CBEE  97                05958 	DB $97
CBEF  C1                05959 	DB $C1
CBF0                    05960 	; 	DATA BYTE $3c,$87,$81,$34,$01,$89,$a8,$f4
CBF0  3C                05961 	DB $3C
CBF1  87                05962 	DB $87
CBF2  81                05963 	DB $81
CBF3  34                05964 	DB $34
CBF4  01                05965 	DB $01
CBF5  89                05966 	DB $89
CBF6  A8                05967 	DB $A8
CBF7  F4                05968 	DB $F4
CBF8                    05969 	; 	DATA BYTE $fd,$d1,$ba,$85,$20,$54,$95,$e8
CBF8  FD                05970 	DB $FD
CBF9  D1                05971 	DB $D1
CBFA  BA                05972 	DB $BA
CBFB  85                05973 	DB $85
CBFC  20                05974 	DB $20
CBFD  54                05975 	DB $54
CBFE  95                05976 	DB $95
CBFF  E8                05977 	DB $E8
CC00                    05978 	; 	DATA BYTE $25,$03,$ab,$7f,$11,$ef,$5f,$af
CC00  25                05979 	DB $25
CC01  03                05980 	DB $03
CC02  AB                05981 	DB $AB
CC03  7F                05982 	DB $7F
CC04  11                05983 	DB $11
CC05  EF                05984 	DB $EF
CC06  5F                05985 	DB $5F
CC07  AF                05986 	DB $AF
CC08                    05987 	; 	DATA BYTE $91,$a7,$5f,$8f,$75,$eb,$a9,$29
CC08  91                05988 	DB $91
CC09  A7                05989 	DB $A7
CC0A  5F                05990 	DB $5F
CC0B  8F                05991 	DB $8F
CC0C  75                05992 	DB $75
CC0D  EB                05993 	DB $EB
CC0E  A9                05994 	DB $A9
CC0F  29                05995 	DB $29
CC10                    05996 	; 	DATA BYTE $d5,$91,$67,$c7,$2d,$27,$d5,$18
CC10  D5                05997 	DB $D5
CC11  91                05998 	DB $91
CC12  67                05999 	DB $67
CC13  C7                06000 	DB $C7
CC14  2D                06001 	DB $2D
CC15  27                06002 	DB $27
CC16  D5                06003 	DB $D5
CC17  18                06004 	DB $18
CC18                    06005 	; 	DATA BYTE $00,$78,$3c,$91,$5a,$6a,$00,$81
CC18  00                06006 	DB $00
CC19  78                06007 	DB $78
CC1A  3C                06008 	DB $3C
CC1B  91                06009 	DB $91
CC1C  5A                06010 	DB $5A
CC1D  6A                06011 	DB $6A
CC1E  00                06012 	DB $00
CC1F  81                06013 	DB $81
CC20                    06014 	; 	DATA BYTE $f8,$d8,$00,$a3,$58,$de,$9a,$6f
CC20  F8                06015 	DB $F8
CC21  D8                06016 	DB $D8
CC22  00                06017 	DB $00
CC23  A3                06018 	DB $A3
CC24  58                06019 	DB $58
CC25  DE                06020 	DB $DE
CC26  9A                06021 	DB $9A
CC27  6F                06022 	DB $6F
CC28                    06023 	; 	DATA BYTE $29,$42,$1b,$bb,$70,$17,$70,$af
CC28  29                06024 	DB $29
CC29  42                06025 	DB $42
CC2A  1B                06026 	DB $1B
CC2B  BB                06027 	DB $BB
CC2C  70                06028 	DB $70
CC2D  17                06029 	DB $17
CC2E  70                06030 	DB $70
CC2F  AF                06031 	DB $AF
CC30                    06032 	; 	DATA BYTE $f7,$9b,$76,$00,$15,$ef,$01,$ae
CC30  F7                06033 	DB $F7
CC31  9B                06034 	DB $9B
CC32  76                06035 	DB $76
CC33  00                06036 	DB $00
CC34  15                06037 	DB $15
CC35  EF                06038 	DB $EF
CC36  01                06039 	DB $01
CC37  AE                06040 	DB $AE
CC38                    06041 	; 	DATA BYTE $47,$cf,$d7,$b7,$bf,$c7,$ef,$91
CC38  47                06042 	DB $47
CC39  CF                06043 	DB $CF
CC3A  D7                06044 	DB $D7
CC3B  B7                06045 	DB $B7
CC3C  BF                06046 	DB $BF
CC3D  C7                06047 	DB $C7
CC3E  EF                06048 	DB $EF
CC3F  91                06049 	DB $91
CC40                    06050 	; 	DATA BYTE $bd,$0f,$00,$f5,$7f,$f5,$91,$47
CC40  BD                06051 	DB $BD
CC41  0F                06052 	DB $0F
CC42  00                06053 	DB $00
CC43  F5                06054 	DB $F5
CC44  7F                06055 	DB $7F
CC45  F5                06056 	DB $F5
CC46  91                06057 	DB $91
CC47  47                06058 	DB $47
CC48                    06059 	; 	DATA BYTE $c0,$c1,$d9,$00,$f7,$8c,$0f,$d7
CC48  C0                06060 	DB $C0
CC49  C1                06061 	DB $C1
CC4A  D9                06062 	DB $D9
CC4B  00                06063 	DB $00
CC4C  F7                06064 	DB $F7
CC4D  8C                06065 	DB $8C
CC4E  0F                06066 	DB $0F
CC4F  D7                06067 	DB $D7
CC50                    06068 	; 	DATA BYTE $fe,$df,$e5,$82,$72,$01,$eb,$15
CC50  FE                06069 	DB $FE
CC51  DF                06070 	DB $DF
CC52  E5                06071 	DB $E5
CC53  82                06072 	DB $82
CC54  72                06073 	DB $72
CC55  01                06074 	DB $01
CC56  EB                06075 	DB $EB
CC57  15                06076 	DB $15
CC58                    06077 	; 	DATA BYTE $8a,$1f,$01,$05,$2a,$2c,$91,$03
CC58  8A                06078 	DB $8A
CC59  1F                06079 	DB $1F
CC5A  01                06080 	DB $01
CC5B  05                06081 	DB $05
CC5C  2A                06082 	DB $2A
CC5D  2C                06083 	DB $2C
CC5E  91                06084 	DB $91
CC5F  03                06085 	DB $03
CC60                    06086 	; 	DATA BYTE $f5,$45,$ab,$e1,$8a,$95,$ae,$96
CC60  F5                06087 	DB $F5
CC61  45                06088 	DB $45
CC62  AB                06089 	DB $AB
CC63  E1                06090 	DB $E1
CC64  8A                06091 	DB $8A
CC65  95                06092 	DB $95
CC66  AE                06093 	DB $AE
CC67  96                06094 	DB $96
CC68                    06095 	; 	DATA BYTE $97,$0b,$04,$75,$fa,$d4,$ae,$f4
CC68  97                06096 	DB $97
CC69  0B                06097 	DB $0B
CC6A  04                06098 	DB $04
CC6B  75                06099 	DB $75
CC6C  FA                06100 	DB $FA
CC6D  D4                06101 	DB $D4
CC6E  AE                06102 	DB $AE
CC6F  F4                06103 	DB $F4
CC70                    06104 	; 	DATA BYTE $77,$fe,$f9,$a1,$e2,$9b,$25,$05
CC70  77                06105 	DB $77
CC71  FE                06106 	DB $FE
CC72  F9                06107 	DB $F9
CC73  A1                06108 	DB $A1
CC74  E2                06109 	DB $E2
CC75  9B                06110 	DB $9B
CC76  25                06111 	DB $25
CC77  05                06112 	DB $05
CC78                    06113 	; 	DATA BYTE $fb,$a7,$5d,$14,$29,$9d,$70,$a9
CC78  FB                06114 	DB $FB
CC79  A7                06115 	DB $A7
CC7A  5D                06116 	DB $5D
CC7B  14                06117 	DB $14
CC7C  29                06118 	DB $29
CC7D  9D                06119 	DB $9D
CC7E  70                06120 	DB $70
CC7F  A9                06121 	DB $A9
CC80                    06122 	; 	DATA BYTE $75,$d3,$a3,$e0,$d7,$2d,$55,$3c
CC80  75                06123 	DB $75
CC81  D3                06124 	DB $D3
CC82  A3                06125 	DB $A3
CC83  E0                06126 	DB $E0
CC84  D7                06127 	DB $D7
CC85  2D                06128 	DB $2D
CC86  55                06129 	DB $55
CC87  3C                06130 	DB $3C
CC88                    06131 	; 	DATA BYTE $9d,$c8,$01,$a5,$19,$60,$00,$b0
CC88  9D                06132 	DB $9D
CC89  C8                06133 	DB $C8
CC8A  01                06134 	DB $01
CC8B  A5                06135 	DB $A5
CC8C  19                06136 	DB $19
CC8D  60                06137 	DB $60
CC8E  00                06138 	DB $00
CC8F  B0                06139 	DB $B0
CC90                    06140 	; 	DATA BYTE $fd,$3b,$02,$00,$50,$87,$39,$9e
CC90  FD                06141 	DB $FD
CC91  3B                06142 	DB $3B
CC92  02                06143 	DB $02
CC93  00                06144 	DB $00
CC94  50                06145 	DB $50
CC95  87                06146 	DB $87
CC96  39                06147 	DB $39
CC97  9E                06148 	DB $9E
CC98                    06149 	; 	DATA BYTE $38,$a8,$9b,$f8,$53,$df,$7c,$e6
CC98  38                06150 	DB $38
CC99  A8                06151 	DB $A8
CC9A  9B                06152 	DB $9B
CC9B  F8                06153 	DB $F8
CC9C  53                06154 	DB $53
CC9D  DF                06155 	DB $DF
CC9E  7C                06156 	DB $7C
CC9F  E6                06157 	DB $E6
CCA0                    06158 	; 	DATA BYTE $17,$70,$84,$00,$78,$f8,$f1,$50
CCA0  17                06159 	DB $17
CCA1  70                06160 	DB $70
CCA2  84                06161 	DB $84
CCA3  00                06162 	DB $00
CCA4  78                06163 	DB $78
CCA5  F8                06164 	DB $F8
CCA6  F1                06165 	DB $F1
CCA7  50                06166 	DB $50
CCA8                    06167 	; 	DATA BYTE $e1,$f2,$eb,$78,$a7,$0f,$54,$c0
CCA8  E1                06168 	DB $E1
CCA9  F2                06169 	DB $F2
CCAA  EB                06170 	DB $EB
CCAB  78                06171 	DB $78
CCAC  A7                06172 	DB $A7
CCAD  0F                06173 	DB $0F
CCAE  54                06174 	DB $54
CCAF  C0                06175 	DB $C0
CCB0                    06176 	; 	DATA BYTE $ff,$a2,$59,$fb,$31,$41,$02,$9f
CCB0  FF                06177 	DB $FF
CCB1  A2                06178 	DB $A2
CCB2  59                06179 	DB $59
CCB3  FB                06180 	DB $FB
CCB4  31                06181 	DB $31
CCB5  41                06182 	DB $41
CCB6  02                06183 	DB $02
CCB7  9F                06184 	DB $9F
CCB8                    06185 	; 	DATA BYTE $18,$08,$ed,$dc,$8b,$78,$f7,$94
CCB8  18                06186 	DB $18
CCB9  08                06187 	DB $08
CCBA  ED                06188 	DB $ED
CCBB  DC                06189 	DB $DC
CCBC  8B                06190 	DB $8B
CCBD  78                06191 	DB $78
CCBE  F7                06192 	DB $F7
CCBF  94                06193 	DB $94
CCC0                    06194 	; 	DATA BYTE $61,$cd,$6f,$04,$50,$f8,$18,$10
CCC0  61                06195 	DB $61
CCC1  CD                06196 	DB $CD
CCC2  6F                06197 	DB $6F
CCC3  04                06198 	DB $04
CCC4  50                06199 	DB $50
CCC5  F8                06200 	DB $F8
CCC6  18                06201 	DB $18
CCC7  10                06202 	DB $10
CCC8                    06203 	; 	DATA BYTE $9b,$68,$0d,$e4,$20,$a5,$eb,$dd
CCC8  9B                06204 	DB $9B
CCC9  68                06205 	DB $68
CCCA  0D                06206 	DB $0D
CCCB  E4                06207 	DB $E4
CCCC  20                06208 	DB $20
CCCD  A5                06209 	DB $A5
CCCE  EB                06210 	DB $EB
CCCF  DD                06211 	DB $DD
CCD0                    06212 	; 	DATA BYTE $6d,$2a,$53,$85,$a5,$81,$fd,$e8
CCD0  6D                06213 	DB $6D
CCD1  2A                06214 	DB $2A
CCD2  53                06215 	DB $53
CCD3  85                06216 	DB $85
CCD4  A5                06217 	DB $A5
CCD5  81                06218 	DB $81
CCD6  FD                06219 	DB $FD
CCD7  E8                06220 	DB $E8
CCD8                    06221 	; 	DATA BYTE $26,$2a,$65,$7f,$d1,$e6,$00,$f5
CCD8  26                06222 	DB $26
CCD9  2A                06223 	DB $2A
CCDA  65                06224 	DB $65
CCDB  7F                06225 	DB $7F
CCDC  D1                06226 	DB $D1
CCDD  E6                06227 	DB $E6
CCDE  00                06228 	DB $00
CCDF  F5                06229 	DB $F5
CCE0                    06230 	; 	DATA BYTE $83,$6a,$3e,$9b,$da,$79,$07,$8b
CCE0  83                06231 	DB $83
CCE1  6A                06232 	DB $6A
CCE2  3E                06233 	DB $3E
CCE3  9B                06234 	DB $9B
CCE4  DA                06235 	DB $DA
CCE5  79                06236 	DB $79
CCE6  07                06237 	DB $07
CCE7  8B                06238 	DB $8B
CCE8                    06239 	; 	DATA BYTE $17,$9d,$2c,$fb,$a3,$bc,$a5,$fc
CCE8  17                06240 	DB $17
CCE9  9D                06241 	DB $9D
CCEA  2C                06242 	DB $2C
CCEB  FB                06243 	DB $FB
CCEC  A3                06244 	DB $A3
CCED  BC                06245 	DB $BC
CCEE  A5                06246 	DB $A5
CCEF  FC                06247 	DB $FC
CCF0                    06248 	; 	DATA BYTE $fd,$0b,$ae,$59,$0b,$ff,$52,$b7
CCF0  FD                06249 	DB $FD
CCF1  0B                06250 	DB $0B
CCF2  AE                06251 	DB $AE
CCF3  59                06252 	DB $59
CCF4  0B                06253 	DB $0B
CCF5  FF                06254 	DB $FF
CCF6  52                06255 	DB $52
CCF7  B7                06256 	DB $B7
CCF8                    06257 	; 	DATA BYTE $96,$5c,$d7,$6f,$1f,$df,$df,$91
CCF8  96                06258 	DB $96
CCF9  5C                06259 	DB $5C
CCFA  D7                06260 	DB $D7
CCFB  6F                06261 	DB $6F
CCFC  1F                06262 	DB $1F
CCFD  DF                06263 	DB $DF
CCFE  DF                06264 	DB $DF
CCFF  91                06265 	DB $91
CD00                    06266 	; 	DATA BYTE $ec,$84,$70,$01,$7e,$7c,$3e,$a3
CD00  EC                06267 	DB $EC
CD01  84                06268 	DB $84
CD02  70                06269 	DB $70
CD03  01                06270 	DB $01
CD04  7E                06271 	DB $7E
CD05  7C                06272 	DB $7C
CD06  3E                06273 	DB $3E
CD07  A3                06274 	DB $A3
CD08                    06275 	; 	DATA BYTE $c5,$58,$27,$c0,$78,$96,$b5,$a4
CD08  C5                06276 	DB $C5
CD09  58                06277 	DB $58
CD0A  27                06278 	DB $27
CD0B  C0                06279 	DB $C0
CD0C  78                06280 	DB $78
CD0D  96                06281 	DB $96
CD0E  B5                06282 	DB $B5
CD0F  A4                06283 	DB $A4
CD10                    06284 	; 	DATA BYTE $44,$18,$ac,$9f,$4d,$47,$e5,$83
CD10  44                06285 	DB $44
CD11  18                06286 	DB $18
CD12  AC                06287 	DB $AC
CD13  9F                06288 	DB $9F
CD14  4D                06289 	DB $4D
CD15  47                06290 	DB $47
CD16  E5                06291 	DB $E5
CD17  83                06292 	DB $83
CD18                    06293 	; 	DATA BYTE $01,$45,$88,$44,$82,$8f,$b7,$0a
CD18  01                06294 	DB $01
CD19  45                06295 	DB $45
CD1A  88                06296 	DB $88
CD1B  44                06297 	DB $44
CD1C  82                06298 	DB $82
CD1D  8F                06299 	DB $8F
CD1E  B7                06300 	DB $B7
CD1F  0A                06301 	DB $0A
CD20                    06302 	; 	DATA BYTE $f1,$25,$7f,$88,$45,$05,$f7,$0d
CD20  F1                06303 	DB $F1
CD21  25                06304 	DB $25
CD22  7F                06305 	DB $7F
CD23  88                06306 	DB $88
CD24  45                06307 	DB $45
CD25  05                06308 	DB $05
CD26  F7                06309 	DB $F7
CD27  0D                06310 	DB $0D
CD28                    06311 	; 	DATA BYTE $ec,$87,$aa,$50,$49,$8d,$08,$ef
CD28  EC                06312 	DB $EC
CD29  87                06313 	DB $87
CD2A  AA                06314 	DB $AA
CD2B  50                06315 	DB $50
CD2C  49                06316 	DB $49
CD2D  8D                06317 	DB $8D
CD2E  08                06318 	DB $08
CD2F  EF                06319 	DB $EF
CD30                    06320 	; 	DATA BYTE $6d,$21,$20,$55,$97,$7f,$14,$07
CD30  6D                06321 	DB $6D
CD31  21                06322 	DB $21
CD32  20                06323 	DB $20
CD33  55                06324 	DB $55
CD34  97                06325 	DB $97
CD35  7F                06326 	DB $7F
CD36  14                06327 	DB $14
CD37  07                06328 	DB $07
CD38                    06329 	; 	DATA BYTE $fe,$c9,$df,$9c,$45,$01,$54,$d3
CD38  FE                06330 	DB $FE
CD39  C9                06331 	DB $C9
CD3A  DF                06332 	DB $DF
CD3B  9C                06333 	DB $9C
CD3C  45                06334 	DB $45
CD3D  01                06335 	DB $01
CD3E  54                06336 	DB $54
CD3F  D3                06337 	DB $D3
CD40                    06338 	; 	DATA BYTE $ff,$07,$91,$2b,$15,$da,$77,$06
CD40  FF                06339 	DB $FF
CD41  07                06340 	DB $07
CD42  91                06341 	DB $91
CD43  2B                06342 	DB $2B
CD44  15                06343 	DB $15
CD45  DA                06344 	DB $DA
CD46  77                06345 	DB $77
CD47  06                06346 	DB $06
CD48                    06347 	; 	DATA BYTE $9b,$70,$01,$fb,$76,$d0,$bf,$aa
CD48  9B                06348 	DB $9B
CD49  70                06349 	DB $70
CD4A  01                06350 	DB $01
CD4B  FB                06351 	DB $FB
CD4C  76                06352 	DB $76
CD4D  D0                06353 	DB $D0
CD4E  BF                06354 	DB $BF
CD4F  AA                06355 	DB $AA
CD50                    06356 	; 	DATA BYTE $af,$97,$f1,$0f,$80,$4e,$03,$f5
CD50  AF                06357 	DB $AF
CD51  97                06358 	DB $97
CD52  F1                06359 	DB $F1
CD53  0F                06360 	DB $0F
CD54  80                06361 	DB $80
CD55  4E                06362 	DB $4E
CD56  03                06363 	DB $03
CD57  F5                06364 	DB $F5
CD58                    06365 	; 	DATA BYTE $51,$68,$a0,$91,$28,$8a,$fd,$45
CD58  51                06366 	DB $51
CD59  68                06367 	DB $68
CD5A  A0                06368 	DB $A0
CD5B  91                06369 	DB $91
CD5C  28                06370 	DB $28
CD5D  8A                06371 	DB $8A
CD5E  FD                06372 	DB $FD
CD5F  45                06373 	DB $45
CD60                    06374 	; 	DATA BYTE $51,$80,$fd,$ad,$ec,$ee,$93,$1f
CD60  51                06375 	DB $51
CD61  80                06376 	DB $80
CD62  FD                06377 	DB $FD
CD63  AD                06378 	DB $AD
CD64  EC                06379 	DB $EC
CD65  EE                06380 	DB $EE
CD66  93                06381 	DB $93
CD67  1F                06382 	DB $1F
CD68                    06383 	; 	DATA BYTE $96,$1f,$ae,$01,$c7,$df,$3d,$e4
CD68  96                06384 	DB $96
CD69  1F                06385 	DB $1F
CD6A  AE                06386 	DB $AE
CD6B  01                06387 	DB $01
CD6C  C7                06388 	DB $C7
CD6D  DF                06389 	DB $DF
CD6E  3D                06390 	DB $3D
CD6F  E4                06391 	DB $E4
CD70                    06392 	; 	DATA BYTE $00,$89,$e4,$c5,$ec,$bd,$00,$f7
CD70  00                06393 	DB $00
CD71  89                06394 	DB $89
CD72  E4                06395 	DB $E4
CD73  C5                06396 	DB $C5
CD74  EC                06397 	DB $EC
CD75  BD                06398 	DB $BD
CD76  00                06399 	DB $00
CD77  F7                06400 	DB $F7
CD78                    06401 	; 	DATA BYTE $0f,$d9,$2f,$26,$a2,$8a,$8d,$0e
CD78  0F                06402 	DB $0F
CD79  D9                06403 	DB $D9
CD7A  2F                06404 	DB $2F
CD7B  26                06405 	DB $26
CD7C  A2                06406 	DB $A2
CD7D  8A                06407 	DB $8A
CD7E  8D                06408 	DB $8D
CD7F  0E                06409 	DB $0E
CD80                    06410 	; 	DATA BYTE $04,$06,$35,$1e,$09,$67,$40,$82
CD80  04                06411 	DB $04
CD81  06                06412 	DB $06
CD82  35                06413 	DB $35
CD83  1E                06414 	DB $1E
CD84  09                06415 	DB $09
CD85  67                06416 	DB $67
CD86  40                06417 	DB $40
CD87  82                06418 	DB $82
CD88                    06419 	; 	DATA BYTE $93,$33,$b0,$0e,$88,$51,$ed,$2d
CD88  93                06420 	DB $93
CD89  33                06421 	DB $33
CD8A  B0                06422 	DB $B0
CD8B  0E                06423 	DB $0E
CD8C  88                06424 	DB $88
CD8D  51                06425 	DB $51
CD8E  ED                06426 	DB $ED
CD8F  2D                06427 	DB $2D
CD90                    06428 	; 	DATA BYTE $42,$93,$68,$51,$05,$41,$db,$d3
CD90  42                06429 	DB $42
CD91  93                06430 	DB $93
CD92  68                06431 	DB $68
CD93  51                06432 	DB $51
CD94  05                06433 	DB $05
CD95  41                06434 	DB $41
CD96  DB                06435 	DB $DB
CD97  D3                06436 	DB $D3
CD98                    06437 	; 	DATA BYTE $ba,$01,$1b,$b8,$01,$8b,$94,$8a
CD98  BA                06438 	DB $BA
CD99  01                06439 	DB $01
CD9A  1B                06440 	DB $1B
CD9B  B8                06441 	DB $B8
CD9C  01                06442 	DB $01
CD9D  8B                06443 	DB $8B
CD9E  94                06444 	DB $94
CD9F  8A                06445 	DB $8A
CDA0                    06446 	; 	DATA BYTE $93,$e9,$21,$81,$d3,$8f,$9d,$7d
CDA0  93                06447 	DB $93
CDA1  E9                06448 	DB $E9
CDA2  21                06449 	DB $21
CDA3  81                06450 	DB $81
CDA4  D3                06451 	DB $D3
CDA5  8F                06452 	DB $8F
CDA6  9D                06453 	DB $9D
CDA7  7D                06454 	DB $7D
CDA8                    06455 	; 	DATA BYTE $1d,$6f,$01,$d1,$0f,$05,$54,$01
CDA8  1D                06456 	DB $1D
CDA9  6F                06457 	DB $6F
CDAA  01                06458 	DB $01
CDAB  D1                06459 	DB $D1
CDAC  0F                06460 	DB $0F
CDAD  05                06461 	DB $05
CDAE  54                06462 	DB $54
CDAF  01                06463 	DB $01
CDB0                    06464 	; 	DATA BYTE $e7,$a8,$c4,$9f,$e2,$47,$2b,$5d
CDB0  E7                06465 	DB $E7
CDB1  A8                06466 	DB $A8
CDB2  C4                06467 	DB $C4
CDB3  9F                06468 	DB $9F
CDB4  E2                06469 	DB $E2
CDB5  47                06470 	DB $47
CDB6  2B                06471 	DB $2B
CDB7  5D                06472 	DB $5D
CDB8                    06473 	; 	DATA BYTE $1d,$f8,$9f,$3b,$77,$e9,$27,$85
CDB8  1D                06474 	DB $1D
CDB9  F8                06475 	DB $F8
CDBA  9F                06476 	DB $9F
CDBB  3B                06477 	DB $3B
CDBC  77                06478 	DB $77
CDBD  E9                06479 	DB $E9
CDBE  27                06480 	DB $27
CDBF  85                06481 	DB $85
CDC0                    06482 	; 	DATA BYTE $79,$98,$07,$01,$41,$aa,$c1,$c9
CDC0  79                06483 	DB $79
CDC1  98                06484 	DB $98
CDC2  07                06485 	DB $07
CDC3  01                06486 	DB $01
CDC4  41                06487 	DB $41
CDC5  AA                06488 	DB $AA
CDC6  C1                06489 	DB $C1
CDC7  C9                06490 	DB $C9
CDC8                    06491 	; 	DATA BYTE $e9,$07,$6f,$8b,$cc,$0f,$a8,$07
CDC8  E9                06492 	DB $E9
CDC9  07                06493 	DB $07
CDCA  6F                06494 	DB $6F
CDCB  8B                06495 	DB $8B
CDCC  CC                06496 	DB $CC
CDCD  0F                06497 	DB $0F
CDCE  A8                06498 	DB $A8
CDCF  07                06499 	DB $07
CDD0                    06500 	; 	DATA BYTE $eb,$41,$07,$be,$f3,$97,$2e,$8a
CDD0  EB                06501 	DB $EB
CDD1  41                06502 	DB $41
CDD2  07                06503 	DB $07
CDD3  BE                06504 	DB $BE
CDD4  F3                06505 	DB $F3
CDD5  97                06506 	DB $97
CDD6  2E                06507 	DB $2E
CDD7  8A                06508 	DB $8A
CDD8                    06509 	; 	DATA BYTE $56,$ee,$a4,$a7,$6b,$35,$b1,$5b
CDD8  56                06510 	DB $56
CDD9  EE                06511 	DB $EE
CDDA  A4                06512 	DB $A4
CDDB  A7                06513 	DB $A7
CDDC  6B                06514 	DB $6B
CDDD  35                06515 	DB $35
CDDE  B1                06516 	DB $B1
CDDF  5B                06517 	DB $5B
CDE0                    06518 	; 	DATA BYTE $24,$cb,$00,$dc,$6f,$fc,$c9,$96
CDE0  24                06519 	DB $24
CDE1  CB                06520 	DB $CB
CDE2  00                06521 	DB $00
CDE3  DC                06522 	DB $DC
CDE4  6F                06523 	DB $6F
CDE5  FC                06524 	DB $FC
CDE6  C9                06525 	DB $C9
CDE7  96                06526 	DB $96
CDE8                    06527 	; 	DATA BYTE $a8,$af,$7e,$25,$e1,$7a,$17,$8c
CDE8  A8                06528 	DB $A8
CDE9  AF                06529 	DB $AF
CDEA  7E                06530 	DB $7E
CDEB  25                06531 	DB $25
CDEC  E1                06532 	DB $E1
CDED  7A                06533 	DB $7A
CDEE  17                06534 	DB $17
CDEF  8C                06535 	DB $8C
CDF0                    06536 	; 	DATA BYTE $06,$93,$61,$0b,$d5,$67,$e3,$77
CDF0  06                06537 	DB $06
CDF1  93                06538 	DB $93
CDF2  61                06539 	DB $61
CDF3  0B                06540 	DB $0B
CDF4  D5                06541 	DB $D5
CDF5  67                06542 	DB $67
CDF6  E3                06543 	DB $E3
CDF7  77                06544 	DB $77
CDF8                    06545 	; 	DATA BYTE $95,$cd,$01,$45,$9d,$1d,$a2,$05
CDF8  95                06546 	DB $95
CDF9  CD                06547 	DB $CD
CDFA  01                06548 	DB $01
CDFB  45                06549 	DB $45
CDFC  9D                06550 	DB $9D
CDFD  1D                06551 	DB $1D
CDFE  A2                06552 	DB $A2
CDFF  05                06553 	DB $05
CE00                    06554 	; 	DATA BYTE $07,$d5,$75,$fb,$26,$a7,$c6,$51
CE00  07                06555 	DB $07
CE01  D5                06556 	DB $D5
CE02  75                06557 	DB $75
CE03  FB                06558 	DB $FB
CE04  26                06559 	DB $26
CE05  A7                06560 	DB $A7
CE06  C6                06561 	DB $C6
CE07  51                06562 	DB $51
CE08                    06563 	; 	DATA BYTE $09,$ed,$77,$47,$74,$25,$f9,$68
CE08  09                06564 	DB $09
CE09  ED                06565 	DB $ED
CE0A  77                06566 	DB $77
CE0B  47                06567 	DB $47
CE0C  74                06568 	DB $74
CE0D  25                06569 	DB $25
CE0E  F9                06570 	DB $F9
CE0F  68                06571 	DB $68
CE10                    06572 	; 	DATA BYTE $a1,$99,$11,$7b,$3b,$24,$d7,$f9
CE10  A1                06573 	DB $A1
CE11  99                06574 	DB $99
CE12  11                06575 	DB $11
CE13  7B                06576 	DB $7B
CE14  3B                06577 	DB $3B
CE15  24                06578 	DB $24
CE16  D7                06579 	DB $D7
CE17  F9                06580 	DB $F9
CE18                    06581 	; 	DATA BYTE $18,$01,$01,$b0,$01,$c7,$cd,$51
CE18  18                06582 	DB $18
CE19  01                06583 	DB $01
CE1A  01                06584 	DB $01
CE1B  B0                06585 	DB $B0
CE1C  01                06586 	DB $01
CE1D  C7                06587 	DB $C7
CE1E  CD                06588 	DB $CD
CE1F  51                06589 	DB $51
CE20                    06590 	; 	DATA BYTE $2a,$1b,$ab,$ef,$df,$b9,$f1,$ab
CE20  2A                06591 	DB $2A
CE21  1B                06592 	DB $1B
CE22  AB                06593 	DB $AB
CE23  EF                06594 	DB $EF
CE24  DF                06595 	DB $DF
CE25  B9                06596 	DB $B9
CE26  F1                06597 	DB $F1
CE27  AB                06598 	DB $AB
CE28                    06599 	; 	DATA BYTE $1b,$dd,$44,$a6,$b9,$31,$e9,$4b
CE28  1B                06600 	DB $1B
CE29  DD                06601 	DB $DD
CE2A  44                06602 	DB $44
CE2B  A6                06603 	DB $A6
CE2C  B9                06604 	DB $B9
CE2D  31                06605 	DB $31
CE2E  E9                06606 	DB $E9
CE2F  4B                06607 	DB $4B
CE30                    06608 	; 	DATA BYTE $c9,$7b,$0b,$63,$a7,$fc,$85,$33
CE30  C9                06609 	DB $C9
CE31  7B                06610 	DB $7B
CE32  0B                06611 	DB $0B
CE33  63                06612 	DB $63
CE34  A7                06613 	DB $A7
CE35  FC                06614 	DB $FC
CE36  85                06615 	DB $85
CE37  33                06616 	DB $33
CE38                    06617 	; 	DATA BYTE $51,$8a,$61,$f7,$ec,$19,$91,$0c
CE38  51                06618 	DB $51
CE39  8A                06619 	DB $8A
CE3A  61                06620 	DB $61
CE3B  F7                06621 	DB $F7
CE3C  EC                06622 	DB $EC
CE3D  19                06623 	DB $19
CE3E  91                06624 	DB $91
CE3F  0C                06625 	DB $0C
CE40                    06626 	; 	DATA BYTE $e9,$12,$15,$a2,$8f,$44,$15,$95
CE40  E9                06627 	DB $E9
CE41  12                06628 	DB $12
CE42  15                06629 	DB $15
CE43  A2                06630 	DB $A2
CE44  8F                06631 	DB $8F
CE45  44                06632 	DB $44
CE46  15                06633 	DB $15
CE47  95                06634 	DB $95
CE48                    06635 	; 	DATA BYTE $2b,$20,$ab,$09,$f5,$fb,$af,$ae
CE48  2B                06636 	DB $2B
CE49  20                06637 	DB $20
CE4A  AB                06638 	DB $AB
CE4B  09                06639 	DB $09
CE4C  F5                06640 	DB $F5
CE4D  FB                06641 	DB $FB
CE4E  AF                06642 	DB $AF
CE4F  AE                06643 	DB $AE
CE50                    06644 	; 	DATA BYTE $05,$ff,$0d,$33,$9f,$5a,$5f,$a0
CE50  05                06645 	DB $05
CE51  FF                06646 	DB $FF
CE52  0D                06647 	DB $0D
CE53  33                06648 	DB $33
CE54  9F                06649 	DB $9F
CE55  5A                06650 	DB $5A
CE56  5F                06651 	DB $5F
CE57  A0                06652 	DB $A0
CE58                    06653 	; 	DATA BYTE $fc,$05,$6f,$57,$c1,$ff,$b4,$67
CE58  FC                06654 	DB $FC
CE59  05                06655 	DB $05
CE5A  6F                06656 	DB $6F
CE5B  57                06657 	DB $57
CE5C  C1                06658 	DB $C1
CE5D  FF                06659 	DB $FF
CE5E  B4                06660 	DB $B4
CE5F  67                06661 	DB $67
CE60                    06662 	; 	DATA BYTE $f3,$bf,$6d,$2f,$8e,$30,$bd,$7f
CE60  F3                06663 	DB $F3
CE61  BF                06664 	DB $BF
CE62  6D                06665 	DB $6D
CE63  2F                06666 	DB $2F
CE64  8E                06667 	DB $8E
CE65  30                06668 	DB $30
CE66  BD                06669 	DB $BD
CE67  7F                06670 	DB $7F
CE68                    06671 	; 	DATA BYTE $ff,$ff,$ff,$e0
CE68  FF                06672 	DB $FF
CE69  FF                06673 	DB $FF
CE6A  FF                06674 	DB $FF
CE6B  E0                06675 	DB $E0
CE6C                    06676 	; 
CE6C                    06677 	; image_color:
CE6C                    06678 CVB_IMAGE_COLOR:
CE6C                    06679 	; 	DATA BYTE $65,$eb,$eb,$e1,$01,$80,$00,$91
CE6C  65                06680 	DB $65
CE6D  EB                06681 	DB $EB
CE6E  EB                06682 	DB $EB
CE6F  E1                06683 	DB $E1
CE70  01                06684 	DB $01
CE71  80                06685 	DB $80
CE72  00                06686 	DB $00
CE73  91                06687 	DB $91
CE74                    06688 	; 	DATA BYTE $f6,$91,$91,$61,$6c,$e1,$00,$f1
CE74  F6                06689 	DB $F6
CE75  91                06690 	DB $91
CE76  91                06691 	DB $91
CE77  61                06692 	DB $61
CE78  6C                06693 	DB $6C
CE79  E1                06694 	DB $E1
CE7A  00                06695 	DB $00
CE7B  F1                06696 	DB $F1
CE7C                    06697 	; 	DATA BYTE $18,$f1,$71,$71,$06,$a5,$8d,$00
CE7C  18                06698 	DB $18
CE7D  F1                06699 	DB $F1
CE7E  71                06700 	DB $71
CE7F  71                06701 	DB $71
CE80  06                06702 	DB $06
CE81  A5                06703 	DB $A5
CE82  8D                06704 	DB $8D
CE83  00                06705 	DB $00
CE84                    06706 	; 	DATA BYTE $e4,$ed,$ac,$11,$09,$27,$fa,$00
CE84  E4                06707 	DB $E4
CE85  ED                06708 	DB $ED
CE86  AC                06709 	DB $AC
CE87  11                06710 	DB $11
CE88  09                06711 	DB $09
CE89  27                06712 	DB $27
CE8A  FA                06713 	DB $FA
CE8B  00                06714 	DB $00
CE8C                    06715 	; 	DATA BYTE $1b,$4d,$c4,$1f,$fe,$8f,$00,$f1
CE8C  1B                06716 	DB $1B
CE8D  4D                06717 	DB $4D
CE8E  C4                06718 	DB $C4
CE8F  1F                06719 	DB $1F
CE90  FE                06720 	DB $FE
CE91  8F                06721 	DB $8F
CE92  00                06722 	DB $00
CE93  F1                06723 	DB $F1
CE94                    06724 	; 	DATA BYTE $fe,$34,$00,$19,$17,$ed,$ed,$c5
CE94  FE                06725 	DB $FE
CE95  34                06726 	DB $34
CE96  00                06727 	DB $00
CE97  19                06728 	DB $19
CE98  17                06729 	DB $17
CE99  ED                06730 	DB $ED
CE9A  ED                06731 	DB $ED
CE9B  C5                06732 	DB $C5
CE9C                    06733 	; 	DATA BYTE $29,$5f,$2d,$03,$3e,$13,$fe,$00
CE9C  29                06734 	DB $29
CE9D  5F                06735 	DB $5F
CE9E  2D                06736 	DB $2D
CE9F  03                06737 	DB $03
CEA0  3E                06738 	DB $3E
CEA1  13                06739 	DB $13
CEA2  FE                06740 	DB $FE
CEA3  00                06741 	DB $00
CEA4                    06742 	; 	DATA BYTE $5c,$ed,$0e,$04,$fe,$fb,$38,$7f
CEA4  5C                06743 	DB $5C
CEA5  ED                06744 	DB $ED
CEA6  0E                06745 	DB $0E
CEA7  04                06746 	DB $04
CEA8  FE                06747 	DB $FE
CEA9  FB                06748 	DB $FB
CEAA  38                06749 	DB $38
CEAB  7F                06750 	DB $7F
CEAC                    06751 	; 	DATA BYTE $8c,$00,$f6,$f6,$04,$9e,$42,$c5
CEAC  8C                06752 	DB $8C
CEAD  00                06753 	DB $00
CEAE  F6                06754 	DB $F6
CEAF  F6                06755 	DB $F6
CEB0  04                06756 	DB $04
CEB1  9E                06757 	DB $9E
CEB2  42                06758 	DB $42
CEB3  C5                06759 	DB $C5
CEB4                    06760 	; 	DATA BYTE $4a,$00,$63,$e6,$65,$6a,$ad,$05
CEB4  4A                06761 	DB $4A
CEB5  00                06762 	DB $00
CEB6  63                06763 	DB $63
CEB7  E6                06764 	DB $E6
CEB8  65                06765 	DB $65
CEB9  6A                06766 	DB $6A
CEBA  AD                06767 	DB $AD
CEBB  05                06768 	DB $05
CEBC                    06769 	; 	DATA BYTE $00,$1b,$7a,$eb,$1d,$06,$b6,$71
CEBC  00                06770 	DB $00
CEBD  1B                06771 	DB $1B
CEBE  7A                06772 	DB $7A
CEBF  EB                06773 	DB $EB
CEC0  1D                06774 	DB $1D
CEC1  06                06775 	DB $06
CEC2  B6                06776 	DB $B6
CEC3  71                06777 	DB $71
CEC4                    06778 	; 	DATA BYTE $00,$5f,$07,$1c,$3d,$00,$c4,$1d
CEC4  00                06779 	DB $00
CEC5  5F                06780 	DB $5F
CEC6  07                06781 	DB $07
CEC7  1C                06782 	DB $1C
CEC8  3D                06783 	DB $3D
CEC9  00                06784 	DB $00
CECA  C4                06785 	DB $C4
CECB  1D                06786 	DB $1D
CECC                    06787 	; 	DATA BYTE $00,$a5,$1f,$1d,$00,$a6,$a6,$05
CECC  00                06788 	DB $00
CECD  A5                06789 	DB $A5
CECE  1F                06790 	DB $1F
CECF  1D                06791 	DB $1D
CED0  00                06792 	DB $00
CED1  A6                06793 	DB $A6
CED2  A6                06794 	DB $A6
CED3  05                06795 	DB $05
CED4                    06796 	; 	DATA BYTE $d8,$56,$39,$eb,$c0,$dd,$13,$ed
CED4  D8                06797 	DB $D8
CED5  56                06798 	DB $56
CED6  39                06799 	DB $39
CED7  EB                06800 	DB $EB
CED8  C0                06801 	DB $C0
CED9  DD                06802 	DB $DD
CEDA  13                06803 	DB $13
CEDB  ED                06804 	DB $ED
CEDC                    06805 	; 	DATA BYTE $e5,$53,$00,$43,$39,$00,$17,$51
CEDC  E5                06806 	DB $E5
CEDD  53                06807 	DB $53
CEDE  00                06808 	DB $00
CEDF  43                06809 	DB $43
CEE0  39                06810 	DB $39
CEE1  00                06811 	DB $00
CEE2  17                06812 	DB $17
CEE3  51                06813 	DB $51
CEE4                    06814 	; 	DATA BYTE $9d,$00,$3a,$06,$ce,$9a,$41,$81
CEE4  9D                06815 	DB $9D
CEE5  00                06816 	DB $00
CEE6  3A                06817 	DB $3A
CEE7  06                06818 	DB $06
CEE8  CE                06819 	DB $CE
CEE9  9A                06820 	DB $9A
CEEA  41                06821 	DB $41
CEEB  81                06822 	DB $81
CEEC                    06823 	; 	DATA BYTE $f8,$cf,$0b,$71,$3e,$00,$13,$83
CEEC  F8                06824 	DB $F8
CEED  CF                06825 	DB $CF
CEEE  0B                06826 	DB $0B
CEEF  71                06827 	DB $71
CEF0  3E                06828 	DB $3E
CEF1  00                06829 	DB $00
CEF2  13                06830 	DB $13
CEF3  83                06831 	DB $83
CEF4                    06832 	; 	DATA BYTE $d6,$6a,$07,$5a,$93,$08,$96,$6b
CEF4  D6                06833 	DB $D6
CEF5  6A                06834 	DB $6A
CEF6  07                06835 	DB $07
CEF7  5A                06836 	DB $5A
CEF8  93                06837 	DB $93
CEF9  08                06838 	DB $08
CEFA  96                06839 	DB $96
CEFB  6B                06840 	DB $6B
CEFC                    06841 	; 	DATA BYTE $05,$09,$02,$9c,$06,$f8,$e8,$33
CEFC  05                06842 	DB $05
CEFD  09                06843 	DB $09
CEFE  02                06844 	DB $02
CEFF  9C                06845 	DB $9C
CF00  06                06846 	DB $06
CF01  F8                06847 	DB $F8
CF02  E8                06848 	DB $E8
CF03  33                06849 	DB $33
CF04                    06850 	; 	DATA BYTE $1f,$5b,$00,$b7,$2e,$83,$ff,$54
CF04  1F                06851 	DB $1F
CF05  5B                06852 	DB $5B
CF06  00                06853 	DB $00
CF07  B7                06854 	DB $B7
CF08  2E                06855 	DB $2E
CF09  83                06856 	DB $83
CF0A  FF                06857 	DB $FF
CF0B  54                06858 	DB $54
CF0C                    06859 	; 	DATA BYTE $87,$1b,$0d,$74,$97,$1e,$14,$cc
CF0C  87                06860 	DB $87
CF0D  1B                06861 	DB $1B
CF0E  0D                06862 	DB $0D
CF0F  74                06863 	DB $74
CF10  97                06864 	DB $97
CF11  1E                06865 	DB $1E
CF12  14                06866 	DB $14
CF13  CC                06867 	DB $CC
CF14                    06868 	; 	DATA BYTE $3d,$01,$ac,$00,$60,$66,$cd,$67
CF14  3D                06869 	DB $3D
CF15  01                06870 	DB $01
CF16  AC                06871 	DB $AC
CF17  00                06872 	DB $00
CF18  60                06873 	DB $60
CF19  66                06874 	DB $66
CF1A  CD                06875 	DB $CD
CF1B  67                06876 	DB $67
CF1C                    06877 	; 	DATA BYTE $c0,$96,$a8,$00,$10,$c7,$27,$0f
CF1C  C0                06878 	DB $C0
CF1D  96                06879 	DB $96
CF1E  A8                06880 	DB $A8
CF1F  00                06881 	DB $00
CF20  10                06882 	DB $10
CF21  C7                06883 	DB $C7
CF22  27                06884 	DB $27
CF23  0F                06885 	DB $0F
CF24                    06886 	; 	DATA BYTE $e6,$03,$94,$e6,$ce,$00,$f7,$0d
CF24  E6                06887 	DB $E6
CF25  03                06888 	DB $03
CF26  94                06889 	DB $94
CF27  E6                06890 	DB $E6
CF28  CE                06891 	DB $CE
CF29  00                06892 	DB $00
CF2A  F7                06893 	DB $F7
CF2B  0D                06894 	DB $0D
CF2C                    06895 	; 	DATA BYTE $40,$fe,$c0,$f0,$42,$e6,$02,$61
CF2C  40                06896 	DB $40
CF2D  FE                06897 	DB $FE
CF2E  C0                06898 	DB $C0
CF2F  F0                06899 	DB $F0
CF30  42                06900 	DB $42
CF31  E6                06901 	DB $E6
CF32  02                06902 	DB $02
CF33  61                06903 	DB $61
CF34                    06904 	; 	DATA BYTE $71,$61,$00,$82,$f9,$07,$e7,$00
CF34  71                06905 	DB $71
CF35  61                06906 	DB $61
CF36  00                06907 	DB $00
CF37  82                06908 	DB $82
CF38  F9                06909 	DB $F9
CF39  07                06910 	DB $07
CF3A  E7                06911 	DB $E7
CF3B  00                06912 	DB $00
CF3C                    06913 	; 	DATA BYTE $f1,$63,$09,$00,$ed,$01,$cb,$c1
CF3C  F1                06914 	DB $F1
CF3D  63                06915 	DB $63
CF3E  09                06916 	DB $09
CF3F  00                06917 	DB $00
CF40  ED                06918 	DB $ED
CF41  01                06919 	DB $01
CF42  CB                06920 	DB $CB
CF43  C1                06921 	DB $C1
CF44                    06922 	; 	DATA BYTE $0c,$01,$c1,$43,$c4,$fc,$06,$51
CF44  0C                06923 	DB $0C
CF45  01                06924 	DB $01
CF46  C1                06925 	DB $C1
CF47  43                06926 	DB $43
CF48  C4                06927 	DB $C4
CF49  FC                06928 	DB $FC
CF4A  06                06929 	DB $06
CF4B  51                06930 	DB $51
CF4C                    06931 	; 	DATA BYTE $c1,$fc,$18,$03,$e4,$71,$fc,$1a
CF4C  C1                06932 	DB $C1
CF4D  FC                06933 	DB $FC
CF4E  18                06934 	DB $18
CF4F  03                06935 	DB $03
CF50  E4                06936 	DB $E4
CF51  71                06937 	DB $71
CF52  FC                06938 	DB $FC
CF53  1A                06939 	DB $1A
CF54                    06940 	; 	DATA BYTE $06,$fe,$c1,$ea,$f0,$ef,$69,$0d
CF54  06                06941 	DB $06
CF55  FE                06942 	DB $FE
CF56  C1                06943 	DB $C1
CF57  EA                06944 	DB $EA
CF58  F0                06945 	DB $F0
CF59  EF                06946 	DB $EF
CF5A  69                06947 	DB $69
CF5B  0D                06948 	DB $0D
CF5C                    06949 	; 	DATA BYTE $6e,$0c,$78,$79,$05,$b6,$ce,$08
CF5C  6E                06950 	DB $6E
CF5D  0C                06951 	DB $0C
CF5E  78                06952 	DB $78
CF5F  79                06953 	DB $79
CF60  05                06954 	DB $05
CF61  B6                06955 	DB $B6
CF62  CE                06956 	DB $CE
CF63  08                06957 	DB $08
CF64                    06958 	; 	DATA BYTE $df,$03,$61,$fd,$38,$00,$ea,$36
CF64  DF                06959 	DB $DF
CF65  03                06960 	DB $03
CF66  61                06961 	DB $61
CF67  FD                06962 	DB $FD
CF68  38                06963 	DB $38
CF69  00                06964 	DB $00
CF6A  EA                06965 	DB $EA
CF6B  36                06966 	DB $36
CF6C                    06967 	; 	DATA BYTE $f0,$0a,$3f,$06,$fa,$0c,$4e,$be
CF6C  F0                06968 	DB $F0
CF6D  0A                06969 	DB $0A
CF6E  3F                06970 	DB $3F
CF6F  06                06971 	DB $06
CF70  FA                06972 	DB $FA
CF71  0C                06973 	DB $0C
CF72  4E                06974 	DB $4E
CF73  BE                06975 	DB $BE
CF74                    06976 	; 	DATA BYTE $08,$c5,$0f,$33,$00,$62,$c0,$e1
CF74  08                06977 	DB $08
CF75  C5                06978 	DB $C5
CF76  0F                06979 	DB $0F
CF77  33                06980 	DB $33
CF78  00                06981 	DB $00
CF79  62                06982 	DB $62
CF7A  C0                06983 	DB $C0
CF7B  E1                06984 	DB $E1
CF7C                    06985 	; 	DATA BYTE $e0,$f9,$f5,$0f,$97,$c1,$bc,$70
CF7C  E0                06986 	DB $E0
CF7D  F9                06987 	DB $F9
CF7E  F5                06988 	DB $F5
CF7F  0F                06989 	DB $0F
CF80  97                06990 	DB $97
CF81  C1                06991 	DB $C1
CF82  BC                06992 	DB $BC
CF83  70                06993 	DB $70
CF84                    06994 	; 	DATA BYTE $e6,$de,$60,$cc,$70,$d7,$63,$59
CF84  E6                06995 	DB $E6
CF85  DE                06996 	DB $DE
CF86  60                06997 	DB $60
CF87  CC                06998 	DB $CC
CF88  70                06999 	DB $70
CF89  D7                07000 	DB $D7
CF8A  63                07001 	DB $63
CF8B  59                07002 	DB $59
CF8C                    07003 	; 	DATA BYTE $e6,$6e,$7a,$00,$db,$10,$40,$fc
CF8C  E6                07004 	DB $E6
CF8D  6E                07005 	DB $6E
CF8E  7A                07006 	DB $7A
CF8F  00                07007 	DB $00
CF90  DB                07008 	DB $DB
CF91  10                07009 	DB $10
CF92  40                07010 	DB $40
CF93  FC                07011 	DB $FC
CF94                    07012 	; 	DATA BYTE $36,$b6,$eb,$00,$c7,$12,$a6,$d0
CF94  36                07013 	DB $36
CF95  B6                07014 	DB $B6
CF96  EB                07015 	DB $EB
CF97  00                07016 	DB $00
CF98  C7                07017 	DB $C7
CF99  12                07018 	DB $12
CF9A  A6                07019 	DB $A6
CF9B  D0                07020 	DB $D0
CF9C                    07021 	; 	DATA BYTE $00,$9d,$e0,$ee,$1c,$b1,$a6,$f1
CF9C  00                07022 	DB $00
CF9D  9D                07023 	DB $9D
CF9E  E0                07024 	DB $E0
CF9F  EE                07025 	DB $EE
CFA0  1C                07026 	DB $1C
CFA1  B1                07027 	DB $B1
CFA2  A6                07028 	DB $A6
CFA3  F1                07029 	DB $F1
CFA4                    07030 	; 	DATA BYTE $16,$04,$9b,$05,$77,$1c,$27,$06
CFA4  16                07031 	DB $16
CFA5  04                07032 	DB $04
CFA6  9B                07033 	DB $9B
CFA7  05                07034 	DB $05
CFA8  77                07035 	DB $77
CFA9  1C                07036 	DB $1C
CFAA  27                07037 	DB $27
CFAB  06                07038 	DB $06
CFAC                    07039 	; 	DATA BYTE $fb,$cc,$00,$f1,$01,$a0,$00,$c7
CFAC  FB                07040 	DB $FB
CFAD  CC                07041 	DB $CC
CFAE  00                07042 	DB $00
CFAF  F1                07043 	DB $F1
CFB0  01                07044 	DB $01
CFB1  A0                07045 	DB $A0
CFB2  00                07046 	DB $00
CFB3  C7                07047 	DB $C7
CFB4                    07048 	; 	DATA BYTE $db,$10,$87,$b9,$87,$99,$5b,$00
CFB4  DB                07049 	DB $DB
CFB5  10                07050 	DB $10
CFB6  87                07051 	DB $87
CFB7  B9                07052 	DB $B9
CFB8  87                07053 	DB $87
CFB9  99                07054 	DB $99
CFBA  5B                07055 	DB $5B
CFBB  00                07056 	DB $00
CFBC                    07057 	; 	DATA BYTE $6b,$6d,$02,$0b,$e2,$b3,$1b,$6c
CFBC  6B                07058 	DB $6B
CFBD  6D                07059 	DB $6D
CFBE  02                07060 	DB $02
CFBF  0B                07061 	DB $0B
CFC0  E2                07062 	DB $E2
CFC1  B3                07063 	DB $B3
CFC2  1B                07064 	DB $1B
CFC3  6C                07065 	DB $6C
CFC4                    07066 	; 	DATA BYTE $82,$c9,$97,$44,$b6,$00,$e6,$96
CFC4  82                07067 	DB $82
CFC5  C9                07068 	DB $C9
CFC6  97                07069 	DB $97
CFC7  44                07070 	DB $44
CFC8  B6                07071 	DB $B6
CFC9  00                07072 	DB $00
CFCA  E6                07073 	DB $E6
CFCB  96                07074 	DB $96
CFCC                    07075 	; 	DATA BYTE $9c,$4d,$32,$b6,$a5,$0f,$15,$b4
CFCC  9C                07076 	DB $9C
CFCD  4D                07077 	DB $4D
CFCE  32                07078 	DB $32
CFCF  B6                07079 	DB $B6
CFD0  A5                07080 	DB $A5
CFD1  0F                07081 	DB $0F
CFD2  15                07082 	DB $15
CFD3  B4                07083 	DB $B4
CFD4                    07084 	; 	DATA BYTE $19,$99,$2d,$8f,$fc,$3c,$10,$9f
CFD4  19                07085 	DB $19
CFD5  99                07086 	DB $99
CFD6  2D                07087 	DB $2D
CFD7  8F                07088 	DB $8F
CFD8  FC                07089 	DB $FC
CFD9  3C                07090 	DB $3C
CFDA  10                07091 	DB $10
CFDB  9F                07092 	DB $9F
CFDC                    07093 	; 	DATA BYTE $37,$fe,$e6,$00,$2e,$ab,$cf,$17
CFDC  37                07094 	DB $37
CFDD  FE                07095 	DB $FE
CFDE  E6                07096 	DB $E6
CFDF  00                07097 	DB $00
CFE0  2E                07098 	DB $2E
CFE1  AB                07099 	DB $AB
CFE2  CF                07100 	DB $CF
CFE3  17                07101 	DB $17
CFE4                    07102 	; 	DATA BYTE $fb,$14,$c2,$fb,$fb,$dd,$03,$ff
CFE4  FB                07103 	DB $FB
CFE5  14                07104 	DB $14
CFE6  C2                07105 	DB $C2
CFE7  FB                07106 	DB $FB
CFE8  FB                07107 	DB $FB
CFE9  DD                07108 	DB $DD
CFEA  03                07109 	DB $03
CFEB  FF                07110 	DB $FF
CFEC                    07111 	; 	DATA BYTE $ef,$2f,$03,$d6,$c6,$57,$a5,$1f
CFEC  EF                07112 	DB $EF
CFED  2F                07113 	DB $2F
CFEE  03                07114 	DB $03
CFEF  D6                07115 	DB $D6
CFF0  C6                07116 	DB $C6
CFF1  57                07117 	DB $57
CFF2  A5                07118 	DB $A5
CFF3  1F                07119 	DB $1F
CFF4                    07120 	; 	DATA BYTE $e2,$81,$95,$c5,$eb,$a1,$f1,$6d
CFF4  E2                07121 	DB $E2
CFF5  81                07122 	DB $81
CFF6  95                07123 	DB $95
CFF7  C5                07124 	DB $C5
CFF8  EB                07125 	DB $EB
CFF9  A1                07126 	DB $A1
CFFA  F1                07127 	DB $F1
CFFB  6D                07128 	DB $6D
CFFC                    07129 	; 	DATA BYTE $20,$f1,$96,$e0,$ed,$41,$ea,$cd
CFFC  20                07130 	DB $20
CFFD  F1                07131 	DB $F1
CFFE  96                07132 	DB $96
CFFF  E0                07133 	DB $E0
D000  ED                07134 	DB $ED
D001  41                07135 	DB $41
D002  EA                07136 	DB $EA
D003  CD                07137 	DB $CD
D004                    07138 	; 	DATA BYTE $cb,$c1,$f0,$f6,$00,$c3,$97,$cd
D004  CB                07139 	DB $CB
D005  C1                07140 	DB $C1
D006  F0                07141 	DB $F0
D007  F6                07142 	DB $F6
D008  00                07143 	DB $00
D009  C3                07144 	DB $C3
D00A  97                07145 	DB $97
D00B  CD                07146 	DB $CD
D00C                    07147 	; 	DATA BYTE $cb,$b6,$4c,$2b,$a6,$c1,$58,$fe
D00C  CB                07148 	DB $CB
D00D  B6                07149 	DB $B6
D00E  4C                07150 	DB $4C
D00F  2B                07151 	DB $2B
D010  A6                07152 	DB $A6
D011  C1                07153 	DB $C1
D012  58                07154 	DB $58
D013  FE                07155 	DB $FE
D014                    07156 	; 	DATA BYTE $39,$04,$f1,$f5,$0e,$59,$b5,$0e
D014  39                07157 	DB $39
D015  04                07158 	DB $04
D016  F1                07159 	DB $F1
D017  F5                07160 	DB $F5
D018  0E                07161 	DB $0E
D019  59                07162 	DB $59
D01A  B5                07163 	DB $B5
D01B  0E                07164 	DB $0E
D01C                    07165 	; 	DATA BYTE $06,$f6,$0f,$d0,$09,$fd,$68,$81
D01C  06                07166 	DB $06
D01D  F6                07167 	DB $F6
D01E  0F                07168 	DB $0F
D01F  D0                07169 	DB $D0
D020  09                07170 	DB $09
D021  FD                07171 	DB $FD
D022  68                07172 	DB $68
D023  81                07173 	DB $81
D024                    07174 	; 	DATA BYTE $64,$61,$fe,$e9,$3a,$68,$00,$7a
D024  64                07175 	DB $64
D025  61                07176 	DB $61
D026  FE                07177 	DB $FE
D027  E9                07178 	DB $E9
D028  3A                07179 	DB $3A
D029  68                07180 	DB $68
D02A  00                07181 	DB $00
D02B  7A                07182 	DB $7A
D02C                    07183 	; 	DATA BYTE $f6,$be,$00,$a0,$5f,$01,$f9,$da
D02C  F6                07184 	DB $F6
D02D  BE                07185 	DB $BE
D02E  00                07186 	DB $00
D02F  A0                07187 	DB $A0
D030  5F                07188 	DB $5F
D031  01                07189 	DB $01
D032  F9                07190 	DB $F9
D033  DA                07191 	DB $DA
D034                    07192 	; 	DATA BYTE $b1,$fd,$1b,$da,$da,$05,$f9,$22
D034  B1                07193 	DB $B1
D035  FD                07194 	DB $FD
D036  1B                07195 	DB $1B
D037  DA                07196 	DB $DA
D038  DA                07197 	DB $DA
D039  05                07198 	DB $05
D03A  F9                07199 	DB $F9
D03B  22                07200 	DB $22
D03C                    07201 	; 	DATA BYTE $f0,$f6,$7c,$06,$ed,$d2,$00,$f3
D03C  F0                07202 	DB $F0
D03D  F6                07203 	DB $F6
D03E  7C                07204 	DB $7C
D03F  06                07205 	DB $06
D040  ED                07206 	DB $ED
D041  D2                07207 	DB $D2
D042  00                07208 	DB $00
D043  F3                07209 	DB $F3
D044                    07210 	; 	DATA BYTE $5f,$e1,$97,$d7,$02,$fb,$47,$95
D044  5F                07211 	DB $5F
D045  E1                07212 	DB $E1
D046  97                07213 	DB $97
D047  D7                07214 	DB $D7
D048  02                07215 	DB $02
D049  FB                07216 	DB $FB
D04A  47                07217 	DB $47
D04B  95                07218 	DB $95
D04C                    07219 	; 	DATA BYTE $d1,$ed,$ac,$f2,$7e,$34,$c2,$dc
D04C  D1                07220 	DB $D1
D04D  ED                07221 	DB $ED
D04E  AC                07222 	DB $AC
D04F  F2                07223 	DB $F2
D050  7E                07224 	DB $7E
D051  34                07225 	DB $34
D052  C2                07226 	DB $C2
D053  DC                07227 	DB $DC
D054                    07228 	; 	DATA BYTE $14,$74,$7d,$e1,$d0,$fd,$20,$ca
D054  14                07229 	DB $14
D055  74                07230 	DB $74
D056  7D                07231 	DB $7D
D057  E1                07232 	DB $E1
D058  D0                07233 	DB $D0
D059  FD                07234 	DB $FD
D05A  20                07235 	DB $20
D05B  CA                07236 	DB $CA
D05C                    07237 	; 	DATA BYTE $e8,$02,$9c,$1b,$e1,$90,$00,$f7
D05C  E8                07238 	DB $E8
D05D  02                07239 	DB $02
D05E  9C                07240 	DB $9C
D05F  1B                07241 	DB $1B
D060  E1                07242 	DB $E1
D061  90                07243 	DB $90
D062  00                07244 	DB $00
D063  F7                07245 	DB $F7
D064                    07246 	; 	DATA BYTE $62,$f5,$40,$ab,$ea,$b4,$18,$9a
D064  62                07247 	DB $62
D065  F5                07248 	DB $F5
D066  40                07249 	DB $40
D067  AB                07250 	DB $AB
D068  EA                07251 	DB $EA
D069  B4                07252 	DB $B4
D06A  18                07253 	DB $18
D06B  9A                07254 	DB $9A
D06C                    07255 	; 	DATA BYTE $7e,$ef,$0d,$3c,$28,$9a,$7d,$02
D06C  7E                07256 	DB $7E
D06D  EF                07257 	DB $EF
D06E  0D                07258 	DB $0D
D06F  3C                07259 	DB $3C
D070  28                07260 	DB $28
D071  9A                07261 	DB $9A
D072  7D                07262 	DB $7D
D073  02                07263 	DB $02
D074                    07264 	; 	DATA BYTE $bc,$23,$90,$b7,$c5,$ea,$a4,$00
D074  BC                07265 	DB $BC
D075  23                07266 	DB $23
D076  90                07267 	DB $90
D077  B7                07268 	DB $B7
D078  C5                07269 	DB $C5
D079  EA                07270 	DB $EA
D07A  A4                07271 	DB $A4
D07B  00                07272 	DB $00
D07C                    07273 	; 	DATA BYTE $24,$b1,$e0,$0d,$21,$87,$86,$23
D07C  24                07274 	DB $24
D07D  B1                07275 	DB $B1
D07E  E0                07276 	DB $E0
D07F  0D                07277 	DB $0D
D080  21                07278 	DB $21
D081  87                07279 	DB $87
D082  86                07280 	DB $86
D083  23                07281 	DB $23
D084                    07282 	; 	DATA BYTE $fc,$bb,$05,$08,$03,$f5,$c0,$fb
D084  FC                07283 	DB $FC
D085  BB                07284 	DB $BB
D086  05                07285 	DB $05
D087  08                07286 	DB $08
D088  03                07287 	DB $03
D089  F5                07288 	DB $F5
D08A  C0                07289 	DB $C0
D08B  FB                07290 	DB $FB
D08C                    07291 	; 	DATA BYTE $bc,$13,$1b,$53,$f1,$a4,$d9,$01
D08C  BC                07292 	DB $BC
D08D  13                07293 	DB $13
D08E  1B                07294 	DB $1B
D08F  53                07295 	DB $53
D090  F1                07296 	DB $F1
D091  A4                07297 	DB $A4
D092  D9                07298 	DB $D9
D093  01                07299 	DB $01
D094                    07300 	; 	DATA BYTE $38,$e3,$00,$da,$c8,$00,$51,$f6
D094  38                07301 	DB $38
D095  E3                07302 	DB $E3
D096  00                07303 	DB $00
D097  DA                07304 	DB $DA
D098  C8                07305 	DB $C8
D099  00                07306 	DB $00
D09A  51                07307 	DB $51
D09B  F6                07308 	DB $F6
D09C                    07309 	; 	DATA BYTE $da,$d7,$b8,$00,$9e,$7b,$07,$c4
D09C  DA                07310 	DB $DA
D09D  D7                07311 	DB $D7
D09E  B8                07312 	DB $B8
D09F  00                07313 	DB $00
D0A0  9E                07314 	DB $9E
D0A1  7B                07315 	DB $7B
D0A2  07                07316 	DB $07
D0A3  C4                07317 	DB $C4
D0A4                    07318 	; 	DATA BYTE $bf,$e5,$a5,$d1,$01,$53,$e6,$00
D0A4  BF                07319 	DB $BF
D0A5  E5                07320 	DB $E5
D0A6  A5                07321 	DB $A5
D0A7  D1                07322 	DB $D1
D0A8  01                07323 	DB $01
D0A9  53                07324 	DB $53
D0AA  E6                07325 	DB $E6
D0AB  00                07326 	DB $00
D0AC                    07327 	; 	DATA BYTE $83,$88,$b8,$a6,$ff,$c5,$f7,$8f
D0AC  83                07328 	DB $83
D0AD  88                07329 	DB $88
D0AE  B8                07330 	DB $B8
D0AF  A6                07331 	DB $A6
D0B0  FF                07332 	DB $FF
D0B1  C5                07333 	DB $C5
D0B2  F7                07334 	DB $F7
D0B3  8F                07335 	DB $8F
D0B4                    07336 	; 	DATA BYTE $cf,$a3,$d2,$b4,$ed,$ee,$8b,$43
D0B4  CF                07337 	DB $CF
D0B5  A3                07338 	DB $A3
D0B6  D2                07339 	DB $D2
D0B7  B4                07340 	DB $B4
D0B8  ED                07341 	DB $ED
D0B9  EE                07342 	DB $EE
D0BA  8B                07343 	DB $8B
D0BB  43                07344 	DB $43
D0BC                    07345 	; 	DATA BYTE $e4,$8b,$f0,$e7,$56,$71,$5d,$e3
D0BC  E4                07346 	DB $E4
D0BD  8B                07347 	DB $8B
D0BE  F0                07348 	DB $F0
D0BF  E7                07349 	DB $E7
D0C0  56                07350 	DB $56
D0C1  71                07351 	DB $71
D0C2  5D                07352 	DB $5D
D0C3  E3                07353 	DB $E3
D0C4                    07354 	; 	DATA BYTE $87,$6b,$35,$a4,$01,$81,$b2,$cd
D0C4  87                07355 	DB $87
D0C5  6B                07356 	DB $6B
D0C6  35                07357 	DB $35
D0C7  A4                07358 	DB $A4
D0C8  01                07359 	DB $01
D0C9  81                07360 	DB $81
D0CA  B2                07361 	DB $B2
D0CB  CD                07362 	DB $CD
D0CC                    07363 	; 	DATA BYTE $e7,$9a,$0e,$45,$27,$f4,$9e,$03
D0CC  E7                07364 	DB $E7
D0CD  9A                07365 	DB $9A
D0CE  0E                07366 	DB $0E
D0CF  45                07367 	DB $45
D0D0  27                07368 	DB $27
D0D1  F4                07369 	DB $F4
D0D2  9E                07370 	DB $9E
D0D3  03                07371 	DB $03
D0D4                    07372 	; 	DATA BYTE $72,$00,$ff,$7c,$bf,$06,$ba,$b1
D0D4  72                07373 	DB $72
D0D5  00                07374 	DB $00
D0D6  FF                07375 	DB $FF
D0D7  7C                07376 	DB $7C
D0D8  BF                07377 	DB $BF
D0D9  06                07378 	DB $06
D0DA  BA                07379 	DB $BA
D0DB  B1                07380 	DB $B1
D0DC                    07381 	; 	DATA BYTE $22,$00,$fa,$00,$a1,$b1,$09,$a3
D0DC  22                07382 	DB $22
D0DD  00                07383 	DB $00
D0DE  FA                07384 	DB $FA
D0DF  00                07385 	DB $00
D0E0  A1                07386 	DB $A1
D0E1  B1                07387 	DB $B1
D0E2  09                07388 	DB $09
D0E3  A3                07389 	DB $A3
D0E4                    07390 	; 	DATA BYTE $01,$07,$c1,$21,$63,$af,$c1,$86
D0E4  01                07391 	DB $01
D0E5  07                07392 	DB $07
D0E6  C1                07393 	DB $C1
D0E7  21                07394 	DB $21
D0E8  63                07395 	DB $63
D0E9  AF                07396 	DB $AF
D0EA  C1                07397 	DB $C1
D0EB  86                07398 	DB $86
D0EC                    07399 	; 	DATA BYTE $d0,$b9,$f6,$6d,$36,$f1,$fb,$ad
D0EC  D0                07400 	DB $D0
D0ED  B9                07401 	DB $B9
D0EE  F6                07402 	DB $F6
D0EF  6D                07403 	DB $6D
D0F0  36                07404 	DB $36
D0F1  F1                07405 	DB $F1
D0F2  FB                07406 	DB $FB
D0F3  AD                07407 	DB $AD
D0F4                    07408 	; 	DATA BYTE $98,$cd,$fe,$37,$fe,$ff,$0f,$fb
D0F4  98                07409 	DB $98
D0F5  CD                07410 	DB $CD
D0F6  FE                07411 	DB $FE
D0F7  37                07412 	DB $37
D0F8  FE                07413 	DB $FE
D0F9  FF                07414 	DB $FF
D0FA  0F                07415 	DB $0F
D0FB  FB                07416 	DB $FB
D0FC                    07417 	; 	DATA BYTE $00,$62,$92,$c0,$8f,$f2,$aa,$f4
D0FC  00                07418 	DB $00
D0FD  62                07419 	DB $62
D0FE  92                07420 	DB $92
D0FF  C0                07421 	DB $C0
D100  8F                07422 	DB $8F
D101  F2                07423 	DB $F2
D102  AA                07424 	DB $AA
D103  F4                07425 	DB $F4
D104                    07426 	; 	DATA BYTE $ee,$90,$e1,$43,$53,$e1,$c7,$e5
D104  EE                07427 	DB $EE
D105  90                07428 	DB $90
D106  E1                07429 	DB $E1
D107  43                07430 	DB $43
D108  53                07431 	DB $53
D109  E1                07432 	DB $E1
D10A  C7                07433 	DB $C7
D10B  E5                07434 	DB $E5
D10C                    07435 	; 	DATA BYTE $c7,$e7,$f5,$03,$ff,$81,$fa,$c5
D10C  C7                07436 	DB $C7
D10D  E7                07437 	DB $E7
D10E  F5                07438 	DB $F5
D10F  03                07439 	DB $03
D110  FF                07440 	DB $FF
D111  81                07441 	DB $81
D112  FA                07442 	DB $FA
D113  C5                07443 	DB $C5
D114                    07444 	; 	DATA BYTE $cb,$f7,$c3,$a6,$8c,$03,$71,$c2
D114  CB                07445 	DB $CB
D115  F7                07446 	DB $F7
D116  C3                07447 	DB $C3
D117  A6                07448 	DB $A6
D118  8C                07449 	DB $8C
D119  03                07450 	DB $03
D11A  71                07451 	DB $71
D11B  C2                07452 	DB $C2
D11C                    07453 	; 	DATA BYTE $af,$9b,$f6,$0b,$96,$d0,$00,$c4
D11C  AF                07454 	DB $AF
D11D  9B                07455 	DB $9B
D11E  F6                07456 	DB $F6
D11F  0B                07457 	DB $0B
D120  96                07458 	DB $96
D121  D0                07459 	DB $D0
D122  00                07460 	DB $00
D123  C4                07461 	DB $C4
D124                    07462 	; 	DATA BYTE $f6,$5c,$e6,$3f,$a9,$90,$b8,$45
D124  F6                07463 	DB $F6
D125  5C                07464 	DB $5C
D126  E6                07465 	DB $E6
D127  3F                07466 	DB $3F
D128  A9                07467 	DB $A9
D129  90                07468 	DB $90
D12A  B8                07469 	DB $B8
D12B  45                07470 	DB $45
D12C                    07471 	; 	DATA BYTE $da,$81,$fd,$5e,$05,$00,$07,$e9
D12C  DA                07472 	DB $DA
D12D  81                07473 	DB $81
D12E  FD                07474 	DB $FD
D12F  5E                07475 	DB $5E
D130  05                07476 	DB $05
D131  00                07477 	DB $00
D132  07                07478 	DB $07
D133  E9                07479 	DB $E9
D134                    07480 	; 	DATA BYTE $8a,$b7,$e1,$e7,$b7,$d3,$e6,$3b
D134  8A                07481 	DB $8A
D135  B7                07482 	DB $B7
D136  E1                07483 	DB $E1
D137  E7                07484 	DB $E7
D138  B7                07485 	DB $B7
D139  D3                07486 	DB $D3
D13A  E6                07487 	DB $E6
D13B  3B                07488 	DB $3B
D13C                    07489 	; 	DATA BYTE $13,$a0,$00,$f1,$95,$f8,$eb,$8b
D13C  13                07490 	DB $13
D13D  A0                07491 	DB $A0
D13E  00                07492 	DB $00
D13F  F1                07493 	DB $F1
D140  95                07494 	DB $95
D141  F8                07495 	DB $F8
D142  EB                07496 	DB $EB
D143  8B                07497 	DB $8B
D144                    07498 	; 	DATA BYTE $dd,$5e,$07,$08,$2d,$e3,$07,$c6
D144  DD                07499 	DB $DD
D145  5E                07500 	DB $5E
D146  07                07501 	DB $07
D147  08                07502 	DB $08
D148  2D                07503 	DB $2D
D149  E3                07504 	DB $E3
D14A  07                07505 	DB $07
D14B  C6                07506 	DB $C6
D14C                    07507 	; 	DATA BYTE $91,$fe,$64,$e4,$00,$b8,$9b,$1b
D14C  91                07508 	DB $91
D14D  FE                07509 	DB $FE
D14E  64                07510 	DB $64
D14F  E4                07511 	DB $E4
D150  00                07512 	DB $00
D151  B8                07513 	DB $B8
D152  9B                07514 	DB $9B
D153  1B                07515 	DB $1B
D154                    07516 	; 	DATA BYTE $b7,$e6,$b4,$34,$b7,$9d,$c0,$f8
D154  B7                07517 	DB $B7
D155  E6                07518 	DB $E6
D156  B4                07519 	DB $B4
D157  34                07520 	DB $34
D158  B7                07521 	DB $B7
D159  9D                07522 	DB $9D
D15A  C0                07523 	DB $C0
D15B  F8                07524 	DB $F8
D15C                    07525 	; 	DATA BYTE $77,$e6,$0f,$07,$db,$4f,$cd,$c5
D15C  77                07526 	DB $77
D15D  E6                07527 	DB $E6
D15E  0F                07528 	DB $0F
D15F  07                07529 	DB $07
D160  DB                07530 	DB $DB
D161  4F                07531 	DB $4F
D162  CD                07532 	DB $CD
D163  C5                07533 	DB $C5
D164                    07534 	; 	DATA BYTE $ed,$e9,$07,$9e,$18,$6a,$07,$71
D164  ED                07535 	DB $ED
D165  E9                07536 	DB $E9
D166  07                07537 	DB $07
D167  9E                07538 	DB $9E
D168  18                07539 	DB $18
D169  6A                07540 	DB $6A
D16A  07                07541 	DB $07
D16B  71                07542 	DB $71
D16C                    07543 	; 	DATA BYTE $00,$81,$fc,$ff,$1c,$03,$c5,$c5
D16C  00                07544 	DB $00
D16D  81                07545 	DB $81
D16E  FC                07546 	DB $FC
D16F  FF                07547 	DB $FF
D170  1C                07548 	DB $1C
D171  03                07549 	DB $03
D172  C5                07550 	DB $C5
D173  C5                07551 	DB $C5
D174                    07552 	; 	DATA BYTE $84,$c0,$d6,$f2,$96,$66,$04,$f1
D174  84                07553 	DB $84
D175  C0                07554 	DB $C0
D176  D6                07555 	DB $D6
D177  F2                07556 	DB $F2
D178  96                07557 	DB $96
D179  66                07558 	DB $66
D17A  04                07559 	DB $04
D17B  F1                07560 	DB $F1
D17C                    07561 	; 	DATA BYTE $f3,$a2,$c8,$bd,$ec,$e0,$d7,$eb
D17C  F3                07562 	DB $F3
D17D  A2                07563 	DB $A2
D17E  C8                07564 	DB $C8
D17F  BD                07565 	DB $BD
D180  EC                07566 	DB $EC
D181  E0                07567 	DB $E0
D182  D7                07568 	DB $D7
D183  EB                07569 	DB $EB
D184                    07570 	; 	DATA BYTE $d1,$c6,$b2,$73,$ed,$bd,$6d,$82
D184  D1                07571 	DB $D1
D185  C6                07572 	DB $C6
D186  B2                07573 	DB $B2
D187  73                07574 	DB $73
D188  ED                07575 	DB $ED
D189  BD                07576 	DB $BD
D18A  6D                07577 	DB $6D
D18B  82                07578 	DB $82
D18C                    07579 	; 	DATA BYTE $56,$5f,$60,$04,$ed,$47,$94,$d9
D18C  56                07580 	DB $56
D18D  5F                07581 	DB $5F
D18E  60                07582 	DB $60
D18F  04                07583 	DB $04
D190  ED                07584 	DB $ED
D191  47                07585 	DB $47
D192  94                07586 	DB $94
D193  D9                07587 	DB $D9
D194                    07588 	; 	DATA BYTE $cb,$c8,$c9,$fe,$a3,$87,$a3,$fa
D194  CB                07589 	DB $CB
D195  C8                07590 	DB $C8
D196  C9                07591 	DB $C9
D197  FE                07592 	DB $FE
D198  A3                07593 	DB $A3
D199  87                07594 	DB $87
D19A  A3                07595 	DB $A3
D19B  FA                07596 	DB $FA
D19C                    07597 	; 	DATA BYTE $c8,$fe,$3c,$b1,$f1,$df,$4b,$6f
D19C  C8                07598 	DB $C8
D19D  FE                07599 	DB $FE
D19E  3C                07600 	DB $3C
D19F  B1                07601 	DB $B1
D1A0  F1                07602 	DB $F1
D1A1  DF                07603 	DB $DF
D1A2  4B                07604 	DB $4B
D1A3  6F                07605 	DB $6F
D1A4                    07606 	; 	DATA BYTE $cb,$93,$d9,$93,$5c,$d6,$07,$a5
D1A4  CB                07607 	DB $CB
D1A5  93                07608 	DB $93
D1A6  D9                07609 	DB $D9
D1A7  93                07610 	DB $93
D1A8  5C                07611 	DB $5C
D1A9  D6                07612 	DB $D6
D1AA  07                07613 	DB $07
D1AB  A5                07614 	DB $A5
D1AC                    07615 	; 	DATA BYTE $e5,$b2,$f1,$16,$a5,$dc,$2e,$ef
D1AC  E5                07616 	DB $E5
D1AD  B2                07617 	DB $B2
D1AE  F1                07618 	DB $F1
D1AF  16                07619 	DB $16
D1B0  A5                07620 	DB $A5
D1B1  DC                07621 	DB $DC
D1B2  2E                07622 	DB $2E
D1B3  EF                07623 	DB $EF
D1B4                    07624 	; 	DATA BYTE $1b,$1c,$05,$ea,$21,$04,$a6,$47
D1B4  1B                07625 	DB $1B
D1B5  1C                07626 	DB $1C
D1B6  05                07627 	DB $05
D1B7  EA                07628 	DB $EA
D1B8  21                07629 	DB $21
D1B9  04                07630 	DB $04
D1BA  A6                07631 	DB $A6
D1BB  47                07632 	DB $47
D1BC                    07633 	; 	DATA BYTE $b1,$8d,$c1,$a4,$d3,$92,$4f,$22
D1BC  B1                07634 	DB $B1
D1BD  8D                07635 	DB $8D
D1BE  C1                07636 	DB $C1
D1BF  A4                07637 	DB $A4
D1C0  D3                07638 	DB $D3
D1C1  92                07639 	DB $92
D1C2  4F                07640 	DB $4F
D1C3  22                07641 	DB $22
D1C4                    07642 	; 	DATA BYTE $62,$91,$02,$bb,$07,$bf,$a3,$67
D1C4  62                07643 	DB $62
D1C5  91                07644 	DB $91
D1C6  02                07645 	DB $02
D1C7  BB                07646 	DB $BB
D1C8  07                07647 	DB $07
D1C9  BF                07648 	DB $BF
D1CA  A3                07649 	DB $A3
D1CB  67                07650 	DB $67
D1CC                    07651 	; 	DATA BYTE $c8,$86,$da,$d4,$0a,$d2,$e0,$f6
D1CC  C8                07652 	DB $C8
D1CD  86                07653 	DB $86
D1CE  DA                07654 	DB $DA
D1CF  D4                07655 	DB $D4
D1D0  0A                07656 	DB $0A
D1D1  D2                07657 	DB $D2
D1D2  E0                07658 	DB $E0
D1D3  F6                07659 	DB $F6
D1D4                    07660 	; 	DATA BYTE $8d,$13,$e6,$a6,$b9,$1b,$e6,$3a
D1D4  8D                07661 	DB $8D
D1D5  13                07662 	DB $13
D1D6  E6                07663 	DB $E6
D1D7  A6                07664 	DB $A6
D1D8  B9                07665 	DB $B9
D1D9  1B                07666 	DB $1B
D1DA  E6                07667 	DB $E6
D1DB  3A                07668 	DB $3A
D1DC                    07669 	; 	DATA BYTE $50,$96,$79,$16,$b6,$77,$01,$1a
D1DC  50                07670 	DB $50
D1DD  96                07671 	DB $96
D1DE  79                07672 	DB $79
D1DF  16                07673 	DB $16
D1E0  B6                07674 	DB $B6
D1E1  77                07675 	DB $77
D1E2  01                07676 	DB $01
D1E3  1A                07677 	DB $1A
D1E4                    07678 	; 	DATA BYTE $0f,$86,$9d,$1b,$05,$a9,$b1,$bb
D1E4  0F                07679 	DB $0F
D1E5  86                07680 	DB $86
D1E6  9D                07681 	DB $9D
D1E7  1B                07682 	DB $1B
D1E8  05                07683 	DB $05
D1E9  A9                07684 	DB $A9
D1EA  B1                07685 	DB $B1
D1EB  BB                07686 	DB $BB
D1EC                    07687 	; 	DATA BYTE $60,$05,$fd,$5b,$f4,$6d,$0c,$b8
D1EC  60                07688 	DB $60
D1ED  05                07689 	DB $05
D1EE  FD                07690 	DB $FD
D1EF  5B                07691 	DB $5B
D1F0  F4                07692 	DB $F4
D1F1  6D                07693 	DB $6D
D1F2  0C                07694 	DB $0C
D1F3  B8                07695 	DB $B8
D1F4                    07696 	; 	DATA BYTE $b5,$00,$67,$f4,$b1,$ec,$00,$ec
D1F4  B5                07697 	DB $B5
D1F5  00                07698 	DB $00
D1F6  67                07699 	DB $67
D1F7  F4                07700 	DB $F4
D1F8  B1                07701 	DB $B1
D1F9  EC                07702 	DB $EC
D1FA  00                07703 	DB $00
D1FB  EC                07704 	DB $EC
D1FC                    07705 	; 	DATA BYTE $e0,$f4,$83,$f9,$aa,$85,$00,$d6
D1FC  E0                07706 	DB $E0
D1FD  F4                07707 	DB $F4
D1FE  83                07708 	DB $83
D1FF  F9                07709 	DB $F9
D200  AA                07710 	DB $AA
D201  85                07711 	DB $85
D202  00                07712 	DB $00
D203  D6                07713 	DB $D6
D204                    07714 	; 	DATA BYTE $8b,$ee,$61,$90,$04,$eb,$da,$70
D204  8B                07715 	DB $8B
D205  EE                07716 	DB $EE
D206  61                07717 	DB $61
D207  90                07718 	DB $90
D208  04                07719 	DB $04
D209  EB                07720 	DB $EB
D20A  DA                07721 	DB $DA
D20B  70                07722 	DB $70
D20C                    07723 	; 	DATA BYTE $85,$68,$ff,$f7,$02,$6c,$5c,$85
D20C  85                07724 	DB $85
D20D  68                07725 	DB $68
D20E  FF                07726 	DB $FF
D20F  F7                07727 	DB $F7
D210  02                07728 	DB $02
D211  6C                07729 	DB $6C
D212  5C                07730 	DB $5C
D213  85                07731 	DB $85
D214                    07732 	; 	DATA BYTE $0c,$f6,$a4,$fe,$05,$90,$00,$91
D214  0C                07733 	DB $0C
D215  F6                07734 	DB $F6
D216  A4                07735 	DB $A4
D217  FE                07736 	DB $FE
D218  05                07737 	DB $05
D219  90                07738 	DB $90
D21A  00                07739 	DB $00
D21B  91                07740 	DB $91
D21C                    07741 	; 	DATA BYTE $8d,$65,$05,$77,$01,$bf,$db,$db
D21C  8D                07742 	DB $8D
D21D  65                07743 	DB $65
D21E  05                07744 	DB $05
D21F  77                07745 	DB $77
D220  01                07746 	DB $01
D221  BF                07747 	DB $BF
D222  DB                07748 	DB $DB
D223  DB                07749 	DB $DB
D224                    07750 	; 	DATA BYTE $9d,$05,$1c,$b1,$d7,$c0,$f8,$91
D224  9D                07751 	DB $9D
D225  05                07752 	DB $05
D226  1C                07753 	DB $1C
D227  B1                07754 	DB $B1
D228  D7                07755 	DB $D7
D229  C0                07756 	DB $C0
D22A  F8                07757 	DB $F8
D22B  91                07758 	DB $91
D22C                    07759 	; 	DATA BYTE $d3,$09,$16,$47,$d6,$08,$a6,$ca
D22C  D3                07760 	DB $D3
D22D  09                07761 	DB $09
D22E  16                07762 	DB $16
D22F  47                07763 	DB $47
D230  D6                07764 	DB $D6
D231  08                07765 	DB $08
D232  A6                07766 	DB $A6
D233  CA                07767 	DB $CA
D234                    07768 	; 	DATA BYTE $03,$b6,$f1,$a1,$a1,$a6,$82,$fb
D234  03                07769 	DB $03
D235  B6                07770 	DB $B6
D236  F1                07771 	DB $F1
D237  A1                07772 	DB $A1
D238  A1                07773 	DB $A1
D239  A6                07774 	DB $A6
D23A  82                07775 	DB $82
D23B  FB                07776 	DB $FB
D23C                    07777 	; 	DATA BYTE $05,$e9,$00,$05,$c1,$8a,$a3,$ea
D23C  05                07778 	DB $05
D23D  E9                07779 	DB $E9
D23E  00                07780 	DB $00
D23F  05                07781 	DB $05
D240  C1                07782 	DB $C1
D241  8A                07783 	DB $8A
D242  A3                07784 	DB $A3
D243  EA                07785 	DB $EA
D244                    07786 	; 	DATA BYTE $c1,$93,$b8,$37,$d8,$28,$01,$f9
D244  C1                07787 	DB $C1
D245  93                07788 	DB $93
D246  B8                07789 	DB $B8
D247  37                07790 	DB $37
D248  D8                07791 	DB $D8
D249  28                07792 	DB $28
D24A  01                07793 	DB $01
D24B  F9                07794 	DB $F9
D24C                    07795 	; 	DATA BYTE $3d,$91,$f2,$61,$07,$ff,$cd,$df
D24C  3D                07796 	DB $3D
D24D  91                07797 	DB $91
D24E  F2                07798 	DB $F2
D24F  61                07799 	DB $61
D250  07                07800 	DB $07
D251  FF                07801 	DB $FF
D252  CD                07802 	DB $CD
D253  DF                07803 	DB $DF
D254                    07804 	; 	DATA BYTE $e8,$e7,$9d,$2f,$b1,$af,$e9,$39
D254  E8                07805 	DB $E8
D255  E7                07806 	DB $E7
D256  9D                07807 	DB $9D
D257  2F                07808 	DB $2F
D258  B1                07809 	DB $B1
D259  AF                07810 	DB $AF
D25A  E9                07811 	DB $E9
D25B  39                07812 	DB $39
D25C                    07813 	; 	DATA BYTE $f1,$fa,$7d,$07,$67,$13,$aa,$75
D25C  F1                07814 	DB $F1
D25D  FA                07815 	DB $FA
D25E  7D                07816 	DB $7D
D25F  07                07817 	DB $07
D260  67                07818 	DB $67
D261  13                07819 	DB $13
D262  AA                07820 	DB $AA
D263  75                07821 	DB $75
D264                    07822 	; 	DATA BYTE $9e,$74,$c6,$48,$ca,$61,$65,$a5
D264  9E                07823 	DB $9E
D265  74                07824 	DB $74
D266  C6                07825 	DB $C6
D267  48                07826 	DB $48
D268  CA                07827 	DB $CA
D269  61                07828 	DB $61
D26A  65                07829 	DB $65
D26B  A5                07830 	DB $A5
D26C                    07831 	; 	DATA BYTE $c8,$d6,$03,$cb,$78,$9f,$99,$d7
D26C  C8                07832 	DB $C8
D26D  D6                07833 	DB $D6
D26E  03                07834 	DB $03
D26F  CB                07835 	DB $CB
D270  78                07836 	DB $78
D271  9F                07837 	DB $9F
D272  99                07838 	DB $99
D273  D7                07839 	DB $D7
D274                    07840 	; 	DATA BYTE $3d,$06,$dd,$e1,$d9,$e6,$95,$bd
D274  3D                07841 	DB $3D
D275  06                07842 	DB $06
D276  DD                07843 	DB $DD
D277  E1                07844 	DB $E1
D278  D9                07845 	DB $D9
D279  E6                07846 	DB $E6
D27A  95                07847 	DB $95
D27B  BD                07848 	DB $BD
D27C                    07849 	; 	DATA BYTE $d7,$ed,$84,$f4,$41,$d9,$be,$28
D27C  D7                07850 	DB $D7
D27D  ED                07851 	DB $ED
D27E  84                07852 	DB $84
D27F  F4                07853 	DB $F4
D280  41                07854 	DB $41
D281  D9                07855 	DB $D9
D282  BE                07856 	DB $BE
D283  28                07857 	DB $28
D284                    07858 	; 	DATA BYTE $d3,$d0,$81,$1f,$a6,$25,$87,$07
D284  D3                07859 	DB $D3
D285  D0                07860 	DB $D0
D286  81                07861 	DB $81
D287  1F                07862 	DB $1F
D288  A6                07863 	DB $A6
D289  25                07864 	DB $25
D28A  87                07865 	DB $87
D28B  07                07866 	DB $07
D28C                    07867 	; 	DATA BYTE $8d,$bd,$c2,$db,$c1,$e1,$df,$d1
D28C  8D                07868 	DB $8D
D28D  BD                07869 	DB $BD
D28E  C2                07870 	DB $C2
D28F  DB                07871 	DB $DB
D290  C1                07872 	DB $C1
D291  E1                07873 	DB $E1
D292  DF                07874 	DB $DF
D293  D1                07875 	DB $D1
D294                    07876 	; 	DATA BYTE $a0,$bc,$bf,$5f,$06,$91,$0e,$ed
D294  A0                07877 	DB $A0
D295  BC                07878 	DB $BC
D296  BF                07879 	DB $BF
D297  5F                07880 	DB $5F
D298  06                07881 	DB $06
D299  91                07882 	DB $91
D29A  0E                07883 	DB $0E
D29B  ED                07884 	DB $ED
D29C                    07885 	; 	DATA BYTE $03,$72,$00,$61,$da,$d1,$b8,$ed
D29C  03                07886 	DB $03
D29D  72                07887 	DB $72
D29E  00                07888 	DB $00
D29F  61                07889 	DB $61
D2A0  DA                07890 	DB $DA
D2A1  D1                07891 	DB $D1
D2A2  B8                07892 	DB $B8
D2A3  ED                07893 	DB $ED
D2A4                    07894 	; 	DATA BYTE $ab,$00,$59,$1c,$04,$b6,$8a,$fb
D2A4  AB                07895 	DB $AB
D2A5  00                07896 	DB $00
D2A6  59                07897 	DB $59
D2A7  1C                07898 	DB $1C
D2A8  04                07899 	DB $04
D2A9  B6                07900 	DB $B6
D2AA  8A                07901 	DB $8A
D2AB  FB                07902 	DB $FB
D2AC                    07903 	; 	DATA BYTE $01,$fe,$a1,$21,$0f,$8c,$0d,$e2
D2AC  01                07904 	DB $01
D2AD  FE                07905 	DB $FE
D2AE  A1                07906 	DB $A1
D2AF  21                07907 	DB $21
D2B0  0F                07908 	DB $0F
D2B1  8C                07909 	DB $8C
D2B2  0D                07910 	DB $0D
D2B3  E2                07911 	DB $E2
D2B4                    07912 	; 	DATA BYTE $54,$03,$c2,$b6,$81,$fc,$e6,$c1
D2B4  54                07913 	DB $54
D2B5  03                07914 	DB $03
D2B6  C2                07915 	DB $C2
D2B7  B6                07916 	DB $B6
D2B8  81                07917 	DB $81
D2B9  FC                07918 	DB $FC
D2BA  E6                07919 	DB $E6
D2BB  C1                07920 	DB $C1
D2BC                    07921 	; 	DATA BYTE $f6,$ab,$cd,$ef,$f7,$ff,$ff,$70
D2BC  F6                07922 	DB $F6
D2BD  AB                07923 	DB $AB
D2BE  CD                07924 	DB $CD
D2BF  EF                07925 	DB $EF
D2C0  F7                07926 	DB $F7
D2C1  FF                07927 	DB $FF
D2C2  FF                07928 	DB $FF
D2C3  70                07929 	DB $70
D2C4                    07930 	; 	DATA BYTE $17,$96,$f2,$03,$e1,$e2,$0d,$bb
D2C4  17                07931 	DB $17
D2C5  96                07932 	DB $96
D2C6  F2                07933 	DB $F2
D2C7  03                07934 	DB $03
D2C8  E1                07935 	DB $E1
D2C9  E2                07936 	DB $E2
D2CA  0D                07937 	DB $0D
D2CB  BB                07938 	DB $BB
D2CC                    07939 	; 	DATA BYTE $b2,$ab,$9f,$07,$fd,$83,$9d,$83
D2CC  B2                07940 	DB $B2
D2CD  AB                07941 	DB $AB
D2CE  9F                07942 	DB $9F
D2CF  07                07943 	DB $07
D2D0  FD                07944 	DB $FD
D2D1  83                07945 	DB $83
D2D2  9D                07946 	DB $9D
D2D3  83                07947 	DB $83
D2D4                    07948 	; 	DATA BYTE $b9,$c3,$a0,$7c,$71,$e7,$bb,$0f
D2D4  B9                07949 	DB $B9
D2D5  C3                07950 	DB $C3
D2D6  A0                07951 	DB $A0
D2D7  7C                07952 	DB $7C
D2D8  71                07953 	DB $71
D2D9  E7                07954 	DB $E7
D2DA  BB                07955 	DB $BB
D2DB  0F                07956 	DB $0F
D2DC                    07957 	; 	DATA BYTE $c6,$66,$10,$18,$35,$f2,$2b,$ec
D2DC  C6                07958 	DB $C6
D2DD  66                07959 	DB $66
D2DE  10                07960 	DB $10
D2DF  18                07961 	DB $18
D2E0  35                07962 	DB $35
D2E1  F2                07963 	DB $F2
D2E2  2B                07964 	DB $2B
D2E3  EC                07965 	DB $EC
D2E4                    07966 	; 	DATA BYTE $bf,$1f,$02,$d6,$21,$9a,$14,$41
D2E4  BF                07967 	DB $BF
D2E5  1F                07968 	DB $1F
D2E6  02                07969 	DB $02
D2E7  D6                07970 	DB $D6
D2E8  21                07971 	DB $21
D2E9  9A                07972 	DB $9A
D2EA  14                07973 	DB $14
D2EB  41                07974 	DB $41
D2EC                    07975 	; 	DATA BYTE $25,$51,$70,$51,$89,$86,$a5,$65
D2EC  25                07976 	DB $25
D2ED  51                07977 	DB $51
D2EE  70                07978 	DB $70
D2EF  51                07979 	DB $51
D2F0  89                07980 	DB $89
D2F1  86                07981 	DB $86
D2F2  A5                07982 	DB $A5
D2F3  65                07983 	DB $65
D2F4                    07984 	; 	DATA BYTE $64,$d6,$9d,$e8,$e6,$00,$c2,$8f
D2F4  64                07985 	DB $64
D2F5  D6                07986 	DB $D6
D2F6  9D                07987 	DB $9D
D2F7  E8                07988 	DB $E8
D2F8  E6                07989 	DB $E6
D2F9  00                07990 	DB $00
D2FA  C2                07991 	DB $C2
D2FB  8F                07992 	DB $8F
D2FC                    07993 	; 	DATA BYTE $71,$dd,$07,$80,$ab,$d4,$b4,$55
D2FC  71                07994 	DB $71
D2FD  DD                07995 	DB $DD
D2FE  07                07996 	DB $07
D2FF  80                07997 	DB $80
D300  AB                07998 	DB $AB
D301  D4                07999 	DB $D4
D302  B4                08000 	DB $B4
D303  55                08001 	DB $55
D304                    08002 	; 	DATA BYTE $f6,$35,$d1,$21,$9a,$7b,$67,$fb
D304  F6                08003 	DB $F6
D305  35                08004 	DB $35
D306  D1                08005 	DB $D1
D307  21                08006 	DB $21
D308  9A                08007 	DB $9A
D309  7B                08008 	DB $7B
D30A  67                08009 	DB $67
D30B  FB                08010 	DB $FB
D30C                    08011 	; 	DATA BYTE $de,$66,$4b,$d5,$71,$93,$d5,$9b
D30C  DE                08012 	DB $DE
D30D  66                08013 	DB $66
D30E  4B                08014 	DB $4B
D30F  D5                08015 	DB $D5
D310  71                08016 	DB $71
D311  93                08017 	DB $93
D312  D5                08018 	DB $D5
D313  9B                08019 	DB $9B
D314                    08020 	; 	DATA BYTE $e9,$63,$f1,$6c,$a6,$f4,$5d,$07
D314  E9                08021 	DB $E9
D315  63                08022 	DB $63
D316  F1                08023 	DB $F1
D317  6C                08024 	DB $6C
D318  A6                08025 	DB $A6
D319  F4                08026 	DB $F4
D31A  5D                08027 	DB $5D
D31B  07                08028 	DB $07
D31C                    08029 	; 	DATA BYTE $a2,$eb,$69,$0d,$7c,$1d,$f5,$db
D31C  A2                08030 	DB $A2
D31D  EB                08031 	DB $EB
D31E  69                08032 	DB $69
D31F  0D                08033 	DB $0D
D320  7C                08034 	DB $7C
D321  1D                08035 	DB $1D
D322  F5                08036 	DB $F5
D323  DB                08037 	DB $DB
D324                    08038 	; 	DATA BYTE $06,$b6,$9e,$7b,$0e,$88,$d8,$27
D324  06                08039 	DB $06
D325  B6                08040 	DB $B6
D326  9E                08041 	DB $9E
D327  7B                08042 	DB $7B
D328  0E                08043 	DB $0E
D329  88                08044 	DB $88
D32A  D8                08045 	DB $D8
D32B  27                08046 	DB $27
D32C                    08047 	; 	DATA BYTE $13,$f6,$f0,$97,$77,$bd,$cd,$ed
D32C  13                08048 	DB $13
D32D  F6                08049 	DB $F6
D32E  F0                08050 	DB $F0
D32F  97                08051 	DB $97
D330  77                08052 	DB $77
D331  BD                08053 	DB $BD
D332  CD                08054 	DB $CD
D333  ED                08055 	DB $ED
D334                    08056 	; 	DATA BYTE $85,$e8,$01,$84,$d1,$41,$4f,$00
D334  85                08057 	DB $85
D335  E8                08058 	DB $E8
D336  01                08059 	DB $01
D337  84                08060 	DB $84
D338  D1                08061 	DB $D1
D339  41                08062 	DB $41
D33A  4F                08063 	DB $4F
D33B  00                08064 	DB $00
D33C                    08065 	; 	DATA BYTE $e9,$62,$0d,$de,$9a,$d1,$51,$80
D33C  E9                08066 	DB $E9
D33D  62                08067 	DB $62
D33E  0D                08068 	DB $0D
D33F  DE                08069 	DB $DE
D340  9A                08070 	DB $9A
D341  D1                08071 	DB $D1
D342  51                08072 	DB $51
D343  80                08073 	DB $80
D344                    08074 	; 	DATA BYTE $b9,$e6,$fa,$ca,$be,$99,$39,$a0
D344  B9                08075 	DB $B9
D345  E6                08076 	DB $E6
D346  FA                08077 	DB $FA
D347  CA                08078 	DB $CA
D348  BE                08079 	DB $BE
D349  99                08080 	DB $99
D34A  39                08081 	DB $39
D34B  A0                08082 	DB $A0
D34C                    08083 	; 	DATA BYTE $3a,$ff,$ef,$00,$11,$b1,$f1,$b0
D34C  3A                08084 	DB $3A
D34D  FF                08085 	DB $FF
D34E  EF                08086 	DB $EF
D34F  00                08087 	DB $00
D350  11                08088 	DB $11
D351  B1                08089 	DB $B1
D352  F1                08090 	DB $F1
D353  B0                08091 	DB $B0
D354                    08092 	; 	DATA BYTE $a8,$9e,$a6,$51,$73,$f0,$65,$c6
D354  A8                08093 	DB $A8
D355  9E                08094 	DB $9E
D356  A6                08095 	DB $A6
D357  51                08096 	DB $51
D358  73                08097 	DB $73
D359  F0                08098 	DB $F0
D35A  65                08099 	DB $65
D35B  C6                08100 	DB $C6
D35C                    08101 	; 	DATA BYTE $e3,$f9,$e9,$3e,$c5,$05,$21,$00
D35C  E3                08102 	DB $E3
D35D  F9                08103 	DB $F9
D35E  E9                08104 	DB $E9
D35F  3E                08105 	DB $3E
D360  C5                08106 	DB $C5
D361  05                08107 	DB $05
D362  21                08108 	DB $21
D363  00                08109 	DB $00
D364                    08110 	; 	DATA BYTE $d9,$d8,$79,$03,$77,$5b,$13,$6d
D364  D9                08111 	DB $D9
D365  D8                08112 	DB $D8
D366  79                08113 	DB $79
D367  03                08114 	DB $03
D368  77                08115 	DB $77
D369  5B                08116 	DB $5B
D36A  13                08117 	DB $13
D36B  6D                08118 	DB $6D
D36C                    08119 	; 	DATA BYTE $d3,$b3,$f6,$29,$69,$23,$a5,$ae
D36C  D3                08120 	DB $D3
D36D  B3                08121 	DB $B3
D36E  F6                08122 	DB $F6
D36F  29                08123 	DB $29
D370  69                08124 	DB $69
D371  23                08125 	DB $23
D372  A5                08126 	DB $A5
D373  AE                08127 	DB $AE
D374                    08128 	; 	DATA BYTE $f1,$06,$ea,$f7,$59,$e1,$5b,$35
D374  F1                08129 	DB $F1
D375  06                08130 	DB $06
D376  EA                08131 	DB $EA
D377  F7                08132 	DB $F7
D378  59                08133 	DB $59
D379  E1                08134 	DB $E1
D37A  5B                08135 	DB $5B
D37B  35                08136 	DB $35
D37C                    08137 	; 	DATA BYTE $a7,$73,$03,$86,$a6,$f3,$00,$42
D37C  A7                08138 	DB $A7
D37D  73                08139 	DB $73
D37E  03                08140 	DB $03
D37F  86                08141 	DB $86
D380  A6                08142 	DB $A6
D381  F3                08143 	DB $F3
D382  00                08144 	DB $00
D383  42                08145 	DB $42
D384                    08146 	; 	DATA BYTE $ea,$bc,$06,$8c,$5e,$f8,$0f,$b7
D384  EA                08147 	DB $EA
D385  BC                08148 	DB $BC
D386  06                08149 	DB $06
D387  8C                08150 	DB $8C
D388  5E                08151 	DB $5E
D389  F8                08152 	DB $F8
D38A  0F                08153 	DB $0F
D38B  B7                08154 	DB $B7
D38C                    08155 	; 	DATA BYTE $08,$38,$00,$c1,$f7,$0b,$cd,$83
D38C  08                08156 	DB $08
D38D  38                08157 	DB $38
D38E  00                08158 	DB $00
D38F  C1                08159 	DB $C1
D390  F7                08160 	DB $F7
D391  0B                08161 	DB $0B
D392  CD                08162 	DB $CD
D393  83                08163 	DB $83
D394                    08164 	; 	DATA BYTE $a0,$e0,$fb,$ee,$78,$08,$6d,$e4
D394  A0                08165 	DB $A0
D395  E0                08166 	DB $E0
D396  FB                08167 	DB $FB
D397  EE                08168 	DB $EE
D398  78                08169 	DB $78
D399  08                08170 	DB $08
D39A  6D                08171 	DB $6D
D39B  E4                08172 	DB $E4
D39C                    08173 	; 	DATA BYTE $00,$b0,$b4,$f2,$c3,$68,$f2,$57
D39C  00                08174 	DB $00
D39D  B0                08175 	DB $B0
D39E  B4                08176 	DB $B4
D39F  F2                08177 	DB $F2
D3A0  C3                08178 	DB $C3
D3A1  68                08179 	DB $68
D3A2  F2                08180 	DB $F2
D3A3  57                08181 	DB $57
D3A4                    08182 	; 	DATA BYTE $19,$f5,$e0,$6b,$07,$d1,$64,$00
D3A4  19                08183 	DB $19
D3A5  F5                08184 	DB $F5
D3A6  E0                08185 	DB $E0
D3A7  6B                08186 	DB $6B
D3A8  07                08187 	DB $07
D3A9  D1                08188 	DB $D1
D3AA  64                08189 	DB $64
D3AB  00                08190 	DB $00
D3AC                    08191 	; 	DATA BYTE $80,$66,$ce,$f8,$e9,$1c,$a6,$51
D3AC  80                08192 	DB $80
D3AD  66                08193 	DB $66
D3AE  CE                08194 	DB $CE
D3AF  F8                08195 	DB $F8
D3B0  E9                08196 	DB $E9
D3B1  1C                08197 	DB $1C
D3B2  A6                08198 	DB $A6
D3B3  51                08199 	DB $51
D3B4                    08200 	; 	DATA BYTE $e7,$6c,$90,$3a,$c1,$f9,$f0,$87
D3B4  E7                08201 	DB $E7
D3B5  6C                08202 	DB $6C
D3B6  90                08203 	DB $90
D3B7  3A                08204 	DB $3A
D3B8  C1                08205 	DB $C1
D3B9  F9                08206 	DB $F9
D3BA  F0                08207 	DB $F0
D3BB  87                08208 	DB $87
D3BC                    08209 	; 	DATA BYTE $be,$c1,$ef,$4d,$db,$00,$9f,$ad
D3BC  BE                08210 	DB $BE
D3BD  C1                08211 	DB $C1
D3BE  EF                08212 	DB $EF
D3BF  4D                08213 	DB $4D
D3C0  DB                08214 	DB $DB
D3C1  00                08215 	DB $00
D3C2  9F                08216 	DB $9F
D3C3  AD                08217 	DB $AD
D3C4                    08218 	; 	DATA BYTE $b6,$00,$b7,$95,$e6,$c4,$fe,$9a
D3C4  B6                08219 	DB $B6
D3C5  00                08220 	DB $00
D3C6  B7                08221 	DB $B7
D3C7  95                08222 	DB $95
D3C8  E6                08223 	DB $E6
D3C9  C4                08224 	DB $C4
D3CA  FE                08225 	DB $FE
D3CB  9A                08226 	DB $9A
D3CC                    08227 	; 	DATA BYTE $00,$7e,$83,$5f,$57,$3e,$c1,$ff
D3CC  00                08228 	DB $00
D3CD  7E                08229 	DB $7E
D3CE  83                08230 	DB $83
D3CF  5F                08231 	DB $5F
D3D0  57                08232 	DB $57
D3D1  3E                08233 	DB $3E
D3D2  C1                08234 	DB $C1
D3D3  FF                08235 	DB $FF
D3D4                    08236 	; 	DATA BYTE $f3,$89,$da,$31,$c9,$df,$dc,$07
D3D4  F3                08237 	DB $F3
D3D5  89                08238 	DB $89
D3D6  DA                08239 	DB $DA
D3D7  31                08240 	DB $31
D3D8  C9                08241 	DB $C9
D3D9  DF                08242 	DB $DF
D3DA  DC                08243 	DB $DC
D3DB  07                08244 	DB $07
D3DC                    08245 	; 	DATA BYTE $98,$9c,$98,$2f,$61,$27,$27,$0d
D3DC  98                08246 	DB $98
D3DD  9C                08247 	DB $9C
D3DE  98                08248 	DB $98
D3DF  2F                08249 	DB $2F
D3E0  61                08250 	DB $61
D3E1  27                08251 	DB $27
D3E2  27                08252 	DB $27
D3E3  0D                08253 	DB $0D
D3E4                    08254 	; 	DATA BYTE $65,$d5,$f7,$fd,$a8,$dd,$82,$59
D3E4  65                08255 	DB $65
D3E5  D5                08256 	DB $D5
D3E6  F7                08257 	DB $F7
D3E7  FD                08258 	DB $FD
D3E8  A8                08259 	DB $A8
D3E9  DD                08260 	DB $DD
D3EA  82                08261 	DB $82
D3EB  59                08262 	DB $59
D3EC                    08263 	; 	DATA BYTE $71,$77,$05,$79,$94,$89,$eb,$a2
D3EC  71                08264 	DB $71
D3ED  77                08265 	DB $77
D3EE  05                08266 	DB $05
D3EF  79                08267 	DB $79
D3F0  94                08268 	DB $94
D3F1  89                08269 	DB $89
D3F2  EB                08270 	DB $EB
D3F3  A2                08271 	DB $A2
D3F4                    08272 	; 	DATA BYTE $0d,$d0,$ec,$0a,$9a,$0d,$27,$87
D3F4  0D                08273 	DB $0D
D3F5  D0                08274 	DB $D0
D3F6  EC                08275 	DB $EC
D3F7  0A                08276 	DB $0A
D3F8  9A                08277 	DB $9A
D3F9  0D                08278 	DB $0D
D3FA  27                08279 	DB $27
D3FB  87                08280 	DB $87
D3FC                    08281 	; 	DATA BYTE $41,$af,$53,$e4,$a6,$f0,$fb,$60
D3FC  41                08282 	DB $41
D3FD  AF                08283 	DB $AF
D3FE  53                08284 	DB $53
D3FF  E4                08285 	DB $E4
D400  A6                08286 	DB $A6
D401  F0                08287 	DB $F0
D402  FB                08288 	DB $FB
D403  60                08289 	DB $60
D404                    08290 	; 	DATA BYTE $d4,$68,$d8,$1e,$47,$d3,$69,$0a
D404  D4                08291 	DB $D4
D405  68                08292 	DB $68
D406  D8                08293 	DB $D8
D407  1E                08294 	DB $1E
D408  47                08295 	DB $47
D409  D3                08296 	DB $D3
D40A  69                08297 	DB $69
D40B  0A                08298 	DB $0A
D40C                    08299 	; 	DATA BYTE $0d,$ff,$7a,$00,$0b,$c8,$71,$5a
D40C  0D                08300 	DB $0D
D40D  FF                08301 	DB $FF
D40E  7A                08302 	DB $7A
D40F  00                08303 	DB $00
D410  0B                08304 	DB $0B
D411  C8                08305 	DB $C8
D412  71                08306 	DB $71
D413  5A                08307 	DB $5A
D414                    08308 	; 	DATA BYTE $0f,$f9,$0d,$6e,$9f,$ed,$00,$82
D414  0F                08309 	DB $0F
D415  F9                08310 	DB $F9
D416  0D                08311 	DB $0D
D417  6E                08312 	DB $6E
D418  9F                08313 	DB $9F
D419  ED                08314 	DB $ED
D41A  00                08315 	DB $00
D41B  82                08316 	DB $82
D41C                    08317 	; 	DATA BYTE $f6,$01,$d9,$02,$c1,$78,$27,$bf
D41C  F6                08318 	DB $F6
D41D  01                08319 	DB $01
D41E  D9                08320 	DB $D9
D41F  02                08321 	DB $02
D420  C1                08322 	DB $C1
D421  78                08323 	DB $78
D422  27                08324 	DB $27
D423  BF                08325 	DB $BF
D424                    08326 	; 	DATA BYTE $3b,$85,$d2,$b2,$ff,$6f,$9f,$00
D424  3B                08327 	DB $3B
D425  85                08328 	DB $85
D426  D2                08329 	DB $D2
D427  B2                08330 	DB $B2
D428  FF                08331 	DB $FF
D429  6F                08332 	DB $6F
D42A  9F                08333 	DB $9F
D42B  00                08334 	DB $00
D42C                    08335 	; 	DATA BYTE $0f,$9f,$b1,$88,$e8,$bb,$0f,$b1
D42C  0F                08336 	DB $0F
D42D  9F                08337 	DB $9F
D42E  B1                08338 	DB $B1
D42F  88                08339 	DB $88
D430  E8                08340 	DB $E8
D431  BB                08341 	DB $BB
D432  0F                08342 	DB $0F
D433  B1                08343 	DB $B1
D434                    08344 	; 	DATA BYTE $b1,$63,$ce,$38,$f1,$34,$f7,$0f
D434  B1                08345 	DB $B1
D435  63                08346 	DB $63
D436  CE                08347 	DB $CE
D437  38                08348 	DB $38
D438  F1                08349 	DB $F1
D439  34                08350 	DB $34
D43A  F7                08351 	DB $F7
D43B  0F                08352 	DB $0F
D43C                    08353 	; 	DATA BYTE $83,$f5,$bb,$04,$00,$ef,$0f,$3d
D43C  83                08354 	DB $83
D43D  F5                08355 	DB $F5
D43E  BB                08356 	DB $BB
D43F  04                08357 	DB $04
D440  00                08358 	DB $00
D441  EF                08359 	DB $EF
D442  0F                08360 	DB $0F
D443  3D                08361 	DB $3D
D444                    08362 	; 	DATA BYTE $8d,$fe,$06,$fa,$35,$00,$fd,$87
D444  8D                08363 	DB $8D
D445  FE                08364 	DB $FE
D446  06                08365 	DB $06
D447  FA                08366 	DB $FA
D448  35                08367 	DB $35
D449  00                08368 	DB $00
D44A  FD                08369 	DB $FD
D44B  87                08370 	DB $87
D44C                    08371 	; 	DATA BYTE $b1,$e2,$de,$f8,$8c,$3d,$1f,$8c
D44C  B1                08372 	DB $B1
D44D  E2                08373 	DB $E2
D44E  DE                08374 	DB $DE
D44F  F8                08375 	DB $F8
D450  8C                08376 	DB $8C
D451  3D                08377 	DB $3D
D452  1F                08378 	DB $1F
D453  8C                08379 	DB $8C
D454                    08380 	; 	DATA BYTE $f4,$ff,$0d,$87,$c0,$61,$8a,$d6
D454  F4                08381 	DB $F4
D455  FF                08382 	DB $FF
D456  0D                08383 	DB $0D
D457  87                08384 	DB $87
D458  C0                08385 	DB $C0
D459  61                08386 	DB $61
D45A  8A                08387 	DB $8A
D45B  D6                08388 	DB $D6
D45C                    08389 	; 	DATA BYTE $83,$5f,$01,$b6,$f6,$6d,$19,$e5
D45C  83                08390 	DB $83
D45D  5F                08391 	DB $5F
D45E  01                08392 	DB $01
D45F  B6                08393 	DB $B6
D460  F6                08394 	DB $F6
D461  6D                08395 	DB $6D
D462  19                08396 	DB $19
D463  E5                08397 	DB $E5
D464                    08398 	; 	DATA BYTE $9c,$f1,$5f,$2d,$90,$29,$dd,$36
D464  9C                08399 	DB $9C
D465  F1                08400 	DB $F1
D466  5F                08401 	DB $5F
D467  2D                08402 	DB $2D
D468  90                08403 	DB $90
D469  29                08404 	DB $29
D46A  DD                08405 	DB $DD
D46B  36                08406 	DB $36
D46C                    08407 	; 	DATA BYTE $2e,$6d,$00,$45,$5b,$07,$71,$77
D46C  2E                08408 	DB $2E
D46D  6D                08409 	DB $6D
D46E  00                08410 	DB $00
D46F  45                08411 	DB $45
D470  5B                08412 	DB $5B
D471  07                08413 	DB $07
D472  71                08414 	DB $71
D473  77                08415 	DB $77
D474                    08416 	; 	DATA BYTE $6c,$34,$7d,$0b,$f6,$1f,$6f,$0f
D474  6C                08417 	DB $6C
D475  34                08418 	DB $34
D476  7D                08419 	DB $7D
D477  0B                08420 	DB $0B
D478  F6                08421 	DB $F6
D479  1F                08422 	DB $1F
D47A  6F                08423 	DB $6F
D47B  0F                08424 	DB $0F
D47C                    08425 	; 	DATA BYTE $06,$fb,$c5,$96,$c9,$f3,$c1,$d8
D47C  06                08426 	DB $06
D47D  FB                08427 	DB $FB
D47E  C5                08428 	DB $C5
D47F  96                08429 	DB $96
D480  C9                08430 	DB $C9
D481  F3                08431 	DB $F3
D482  C1                08432 	DB $C1
D483  D8                08433 	DB $D8
D484                    08434 	; 	DATA BYTE $bb,$78,$00,$d6,$0c,$fe,$02,$d3
D484  BB                08435 	DB $BB
D485  78                08436 	DB $78
D486  00                08437 	DB $00
D487  D6                08438 	DB $D6
D488  0C                08439 	DB $0C
D489  FE                08440 	DB $FE
D48A  02                08441 	DB $02
D48B  D3                08442 	DB $D3
D48C                    08443 	; 	DATA BYTE $82,$fb,$0b,$c0,$fb,$66,$fb,$00
D48C  82                08444 	DB $82
D48D  FB                08445 	DB $FB
D48E  0B                08446 	DB $0B
D48F  C0                08447 	DB $C0
D490  FB                08448 	DB $FB
D491  66                08449 	DB $66
D492  FB                08450 	DB $FB
D493  00                08451 	DB $00
D494                    08452 	; 	DATA BYTE $d1,$3f,$a6,$f9,$17,$f5,$2f,$00
D494  D1                08453 	DB $D1
D495  3F                08454 	DB $3F
D496  A6                08455 	DB $A6
D497  F9                08456 	DB $F9
D498  17                08457 	DB $17
D499  F5                08458 	DB $F5
D49A  2F                08459 	DB $2F
D49B  00                08460 	DB $00
D49C                    08461 	; 	DATA BYTE $dc,$6a,$ef,$9b,$7a,$68,$d6,$00
D49C  DC                08462 	DB $DC
D49D  6A                08463 	DB $6A
D49E  EF                08464 	DB $EF
D49F  9B                08465 	DB $9B
D4A0  7A                08466 	DB $7A
D4A1  68                08467 	DB $68
D4A2  D6                08468 	DB $D6
D4A3  00                08469 	DB $00
D4A4                    08470 	; 	DATA BYTE $7a,$f2,$b7,$fc,$ff,$1a,$5f,$04
D4A4  7A                08471 	DB $7A
D4A5  F2                08472 	DB $F2
D4A6  B7                08473 	DB $B7
D4A7  FC                08474 	DB $FC
D4A8  FF                08475 	DB $FF
D4A9  1A                08476 	DB $1A
D4AA  5F                08477 	DB $5F
D4AB  04                08478 	DB $04
D4AC                    08479 	; 	DATA BYTE $05,$16,$ff,$27,$ff,$74,$46,$8b
D4AC  05                08480 	DB $05
D4AD  16                08481 	DB $16
D4AE  FF                08482 	DB $FF
D4AF  27                08483 	DB $27
D4B0  FF                08484 	DB $FF
D4B1  74                08485 	DB $74
D4B2  46                08486 	DB $46
D4B3  8B                08487 	DB $8B
D4B4                    08488 	; 	DATA BYTE $f8,$e6,$0b,$43,$02,$3f,$05,$bc
D4B4  F8                08489 	DB $F8
D4B5  E6                08490 	DB $E6
D4B6  0B                08491 	DB $0B
D4B7  43                08492 	DB $43
D4B8  02                08493 	DB $02
D4B9  3F                08494 	DB $3F
D4BA  05                08495 	DB $05
D4BB  BC                08496 	DB $BC
D4BC                    08497 	; 	DATA BYTE $00,$1c,$eb,$00,$79,$92,$89,$07
D4BC  00                08498 	DB $00
D4BD  1C                08499 	DB $1C
D4BE  EB                08500 	DB $EB
D4BF  00                08501 	DB $00
D4C0  79                08502 	DB $79
D4C1  92                08503 	DB $92
D4C2  89                08504 	DB $89
D4C3  07                08505 	DB $07
D4C4                    08506 	; 	DATA BYTE $fb,$7c,$fb,$07,$e1,$af,$f9,$09
D4C4  FB                08507 	DB $FB
D4C5  7C                08508 	DB $7C
D4C6  FB                08509 	DB $FB
D4C7  07                08510 	DB $07
D4C8  E1                08511 	DB $E1
D4C9  AF                08512 	DB $AF
D4CA  F9                08513 	DB $F9
D4CB  09                08514 	DB $09
D4CC                    08515 	; 	DATA BYTE $eb,$e2,$fe,$6e,$05,$f9,$01,$78
D4CC  EB                08516 	DB $EB
D4CD  E2                08517 	DB $E2
D4CE  FE                08518 	DB $FE
D4CF  6E                08519 	DB $6E
D4D0  05                08520 	DB $05
D4D1  F9                08521 	DB $F9
D4D2  01                08522 	DB $01
D4D3  78                08523 	DB $78
D4D4                    08524 	; 	DATA BYTE $04,$f5,$18,$00,$fb,$d3,$04,$4e
D4D4  04                08525 	DB $04
D4D5  F5                08526 	DB $F5
D4D6  18                08527 	DB $18
D4D7  00                08528 	DB $00
D4D8  FB                08529 	DB $FB
D4D9  D3                08530 	DB $D3
D4DA  04                08531 	DB $04
D4DB  4E                08532 	DB $4E
D4DC                    08533 	; 	DATA BYTE $05,$07,$e0,$fd,$a8,$35,$03,$f9
D4DC  05                08534 	DB $05
D4DD  07                08535 	DB $07
D4DE  E0                08536 	DB $E0
D4DF  FD                08537 	DB $FD
D4E0  A8                08538 	DB $A8
D4E1  35                08539 	DB $35
D4E2  03                08540 	DB $03
D4E3  F9                08541 	DB $F9
D4E4                    08542 	; 	DATA BYTE $37,$41,$af,$8f,$87,$7f,$3f,$00
D4E4  37                08543 	DB $37
D4E5  41                08544 	DB $41
D4E6  AF                08545 	DB $AF
D4E7  8F                08546 	DB $8F
D4E8  87                08547 	DB $87
D4E9  7F                08548 	DB $7F
D4EA  3F                08549 	DB $3F
D4EB  00                08550 	DB $00
D4EC                    08551 	; 	DATA BYTE $b4,$37,$fc,$2c,$e3,$0e,$f8,$7a
D4EC  B4                08552 	DB $B4
D4ED  37                08553 	DB $37
D4EE  FC                08554 	DB $FC
D4EF  2C                08555 	DB $2C
D4F0  E3                08556 	DB $E3
D4F1  0E                08557 	DB $0E
D4F2  F8                08558 	DB $F8
D4F3  7A                08559 	DB $7A
D4F4                    08560 	; 	DATA BYTE $bb,$59,$65,$d3,$f4,$84,$18,$43
D4F4  BB                08561 	DB $BB
D4F5  59                08562 	DB $59
D4F6  65                08563 	DB $65
D4F7  D3                08564 	DB $D3
D4F8  F4                08565 	DB $F4
D4F9  84                08566 	DB $84
D4FA  18                08567 	DB $18
D4FB  43                08568 	DB $43
D4FC                    08569 	; 	DATA BYTE $43,$f8,$01,$c4,$54,$54,$41,$fa
D4FC  43                08570 	DB $43
D4FD  F8                08571 	DB $F8
D4FE  01                08572 	DB $01
D4FF  C4                08573 	DB $C4
D500  54                08574 	DB $54
D501  54                08575 	DB $54
D502  41                08576 	DB $41
D503  FA                08577 	DB $FA
D504                    08578 	; 	DATA BYTE $66,$00,$3c,$7d,$03,$0d,$b1,$e9
D504  66                08579 	DB $66
D505  00                08580 	DB $00
D506  3C                08581 	DB $3C
D507  7D                08582 	DB $7D
D508  03                08583 	DB $03
D509  0D                08584 	DB $0D
D50A  B1                08585 	DB $B1
D50B  E9                08586 	DB $E9
D50C                    08587 	; 	DATA BYTE $75,$ff,$fb,$1b,$00,$41,$51,$5b
D50C  75                08588 	DB $75
D50D  FF                08589 	DB $FF
D50E  FB                08590 	DB $FB
D50F  1B                08591 	DB $1B
D510  00                08592 	DB $00
D511  41                08593 	DB $41
D512  51                08594 	DB $51
D513  5B                08595 	DB $5B
D514                    08596 	; 	DATA BYTE $00,$29,$7c,$07,$be,$2c,$eb,$67
D514  00                08597 	DB $00
D515  29                08598 	DB $29
D516  7C                08599 	DB $7C
D517  07                08600 	DB $07
D518  BE                08601 	DB $BE
D519  2C                08602 	DB $2C
D51A  EB                08603 	DB $EB
D51B  67                08604 	DB $67
D51C                    08605 	; 	DATA BYTE $de,$81,$78,$ec,$be,$f1,$0d,$0b
D51C  DE                08606 	DB $DE
D51D  81                08607 	DB $81
D51E  78                08608 	DB $78
D51F  EC                08609 	DB $EC
D520  BE                08610 	DB $BE
D521  F1                08611 	DB $F1
D522  0D                08612 	DB $0D
D523  0B                08613 	DB $0B
D524                    08614 	; 	DATA BYTE $ee,$c7,$0a,$f1,$96,$0f,$0c,$b8
D524  EE                08615 	DB $EE
D525  C7                08616 	DB $C7
D526  0A                08617 	DB $0A
D527  F1                08618 	DB $F1
D528  96                08619 	DB $96
D529  0F                08620 	DB $0F
D52A  0C                08621 	DB $0C
D52B  B8                08622 	DB $B8
D52C                    08623 	; 	DATA BYTE $af,$6e,$e6,$03,$f8,$dd,$9a,$71
D52C  AF                08624 	DB $AF
D52D  6E                08625 	DB $6E
D52E  E6                08626 	DB $E6
D52F  03                08627 	DB $03
D530  F8                08628 	DB $F8
D531  DD                08629 	DB $DD
D532  9A                08630 	DB $9A
D533  71                08631 	DB $71
D534                    08632 	; 	DATA BYTE $ec,$8f,$3a,$15,$96,$2b,$6f,$a3
D534  EC                08633 	DB $EC
D535  8F                08634 	DB $8F
D536  3A                08635 	DB $3A
D537  15                08636 	DB $15
D538  96                08637 	DB $96
D539  2B                08638 	DB $2B
D53A  6F                08639 	DB $6F
D53B  A3                08640 	DB $A3
D53C                    08641 	; 	DATA BYTE $f5,$18,$82,$88,$c4,$ef,$35,$fb
D53C  F5                08642 	DB $F5
D53D  18                08643 	DB $18
D53E  82                08644 	DB $82
D53F  88                08645 	DB $88
D540  C4                08646 	DB $C4
D541  EF                08647 	DB $EF
D542  35                08648 	DB $35
D543  FB                08649 	DB $FB
D544                    08650 	; 	DATA BYTE $00,$73,$37,$34,$0b,$0e,$f8,$d8
D544  00                08651 	DB $00
D545  73                08652 	DB $73
D546  37                08653 	DB $37
D547  34                08654 	DB $34
D548  0B                08655 	DB $0B
D549  0E                08656 	DB $0E
D54A  F8                08657 	DB $F8
D54B  D8                08658 	DB $D8
D54C                    08659 	; 	DATA BYTE $35,$be,$68,$91,$1f,$a0,$00,$9b
D54C  35                08660 	DB $35
D54D  BE                08661 	DB $BE
D54E  68                08662 	DB $68
D54F  91                08663 	DB $91
D550  1F                08664 	DB $1F
D551  A0                08665 	DB $A0
D552  00                08666 	DB $00
D553  9B                08667 	DB $9B
D554                    08668 	; 	DATA BYTE $66,$75,$00,$cd,$1d,$51,$c0,$f7
D554  66                08669 	DB $66
D555  75                08670 	DB $75
D556  00                08671 	DB $00
D557  CD                08672 	DB $CD
D558  1D                08673 	DB $1D
D559  51                08674 	DB $51
D55A  C0                08675 	DB $C0
D55B  F7                08676 	DB $F7
D55C                    08677 	; 	DATA BYTE $e5,$93,$dc,$ff,$0d,$64,$f5,$fb
D55C  E5                08678 	DB $E5
D55D  93                08679 	DB $93
D55E  DC                08680 	DB $DC
D55F  FF                08681 	DB $FF
D560  0D                08682 	DB $0D
D561  64                08683 	DB $64
D562  F5                08684 	DB $F5
D563  FB                08685 	DB $FB
D564                    08686 	; 	DATA BYTE $12,$43,$8d,$e3,$a7,$ef,$29,$8e
D564  12                08687 	DB $12
D565  43                08688 	DB $43
D566  8D                08689 	DB $8D
D567  E3                08690 	DB $E3
D568  A7                08691 	DB $A7
D569  EF                08692 	DB $EF
D56A  29                08693 	DB $29
D56B  8E                08694 	DB $8E
D56C                    08695 	; 	DATA BYTE $b3,$af,$9f,$86,$87,$e4,$9b,$00
D56C  B3                08696 	DB $B3
D56D  AF                08697 	DB $AF
D56E  9F                08698 	DB $9F
D56F  86                08699 	DB $86
D570  87                08700 	DB $87
D571  E4                08701 	DB $E4
D572  9B                08702 	DB $9B
D573  00                08703 	DB $00
D574                    08704 	; 	DATA BYTE $79,$97,$f2,$9b,$75,$c1,$87,$83
D574  79                08705 	DB $79
D575  97                08706 	DB $97
D576  F2                08707 	DB $F2
D577  9B                08708 	DB $9B
D578  75                08709 	DB $75
D579  C1                08710 	DB $C1
D57A  87                08711 	DB $87
D57B  83                08712 	DB $83
D57C                    08713 	; 	DATA BYTE $f2,$b1,$00,$fc,$fc,$00,$de,$1b
D57C  F2                08714 	DB $F2
D57D  B1                08715 	DB $B1
D57E  00                08716 	DB $00
D57F  FC                08717 	DB $FC
D580  FC                08718 	DB $FC
D581  00                08719 	DB $00
D582  DE                08720 	DB $DE
D583  1B                08721 	DB $1B
D584                    08722 	; 	DATA BYTE $ec,$ea,$81,$bc,$c4,$bf,$c1,$fa
D584  EC                08723 	DB $EC
D585  EA                08724 	DB $EA
D586  81                08725 	DB $81
D587  BC                08726 	DB $BC
D588  C4                08727 	DB $C4
D589  BF                08728 	DB $BF
D58A  C1                08729 	DB $C1
D58B  FA                08730 	DB $FA
D58C                    08731 	; 	DATA BYTE $ae,$9a,$00,$02,$fa,$43,$01,$79
D58C  AE                08732 	DB $AE
D58D  9A                08733 	DB $9A
D58E  00                08734 	DB $00
D58F  02                08735 	DB $02
D590  FA                08736 	DB $FA
D591  43                08737 	DB $43
D592  01                08738 	DB $01
D593  79                08739 	DB $79
D594                    08740 	; 	DATA BYTE $75,$00,$83,$a7,$2f,$6c,$51,$01
D594  75                08741 	DB $75
D595  00                08742 	DB $00
D596  83                08743 	DB $83
D597  A7                08744 	DB $A7
D598  2F                08745 	DB $2F
D599  6C                08746 	DB $6C
D59A  51                08747 	DB $51
D59B  01                08748 	DB $01
D59C                    08749 	; 	DATA BYTE $83,$ad,$9b,$f0,$e0,$fc,$de,$81
D59C  83                08750 	DB $83
D59D  AD                08751 	DB $AD
D59E  9B                08752 	DB $9B
D59F  F0                08753 	DB $F0
D5A0  E0                08754 	DB $E0
D5A1  FC                08755 	DB $FC
D5A2  DE                08756 	DB $DE
D5A3  81                08757 	DB $81
D5A4                    08758 	; 	DATA BYTE $19,$05,$f1,$f1,$8f,$db,$07,$cd
D5A4  19                08759 	DB $19
D5A5  05                08760 	DB $05
D5A6  F1                08761 	DB $F1
D5A7  F1                08762 	DB $F1
D5A8  8F                08763 	DB $8F
D5A9  DB                08764 	DB $DB
D5AA  07                08765 	DB $07
D5AB  CD                08766 	DB $CD
D5AC                    08767 	; 	DATA BYTE $f1,$5d,$08,$0b,$0f,$ec,$87,$b0
D5AC  F1                08768 	DB $F1
D5AD  5D                08769 	DB $5D
D5AE  08                08770 	DB $08
D5AF  0B                08771 	DB $0B
D5B0  0F                08772 	DB $0F
D5B1  EC                08773 	DB $EC
D5B2  87                08774 	DB $87
D5B3  B0                08775 	DB $B0
D5B4                    08776 	; 	DATA BYTE $81,$b6,$b6,$00,$d3,$0d,$97,$fb
D5B4  81                08777 	DB $81
D5B5  B6                08778 	DB $B6
D5B6  B6                08779 	DB $B6
D5B7  00                08780 	DB $00
D5B8  D3                08781 	DB $D3
D5B9  0D                08782 	DB $0D
D5BA  97                08783 	DB $97
D5BB  FB                08784 	DB $FB
D5BC                    08785 	; 	DATA BYTE $fb,$87,$7c,$16,$fe,$ff,$0d,$30
D5BC  FB                08786 	DB $FB
D5BD  87                08787 	DB $87
D5BE  7C                08788 	DB $7C
D5BF  16                08789 	DB $16
D5C0  FE                08790 	DB $FE
D5C1  FF                08791 	DB $FF
D5C2  0D                08792 	DB $0D
D5C3  30                08793 	DB $30
D5C4                    08794 	; 	DATA BYTE $2f,$98,$77,$70,$fb,$b5,$3f,$09
D5C4  2F                08795 	DB $2F
D5C5  98                08796 	DB $98
D5C6  77                08797 	DB $77
D5C7  70                08798 	DB $70
D5C8  FB                08799 	DB $FB
D5C9  B5                08800 	DB $B5
D5CA  3F                08801 	DB $3F
D5CB  09                08802 	DB $09
D5CC                    08803 	; 	DATA BYTE $41,$8f,$69,$71,$28,$04,$f8,$00
D5CC  41                08804 	DB $41
D5CD  8F                08805 	DB $8F
D5CE  69                08806 	DB $69
D5CF  71                08807 	DB $71
D5D0  28                08808 	DB $28
D5D1  04                08809 	DB $04
D5D2  F8                08810 	DB $F8
D5D3  00                08811 	DB $00
D5D4                    08812 	; 	DATA BYTE $e5,$ed,$00,$03,$fc,$9e,$6b,$51
D5D4  E5                08813 	DB $E5
D5D5  ED                08814 	DB $ED
D5D6  00                08815 	DB $00
D5D7  03                08816 	DB $03
D5D8  FC                08817 	DB $FC
D5D9  9E                08818 	DB $9E
D5DA  6B                08819 	DB $6B
D5DB  51                08820 	DB $51
D5DC                    08821 	; 	DATA BYTE $cf,$32,$fe,$93,$ff,$fe,$00,$fc
D5DC  CF                08822 	DB $CF
D5DD  32                08823 	DB $32
D5DE  FE                08824 	DB $FE
D5DF  93                08825 	DB $93
D5E0  FF                08826 	DB $FF
D5E1  FE                08827 	DB $FE
D5E2  00                08828 	DB $00
D5E3  FC                08829 	DB $FC
D5E4                    08830 	; 	DATA BYTE $23,$d6,$89,$56,$a6,$8e,$05,$b1
D5E4  23                08831 	DB $23
D5E5  D6                08832 	DB $D6
D5E6  89                08833 	DB $89
D5E7  56                08834 	DB $56
D5E8  A6                08835 	DB $A6
D5E9  8E                08836 	DB $8E
D5EA  05                08837 	DB $05
D5EB  B1                08838 	DB $B1
D5EC                    08839 	; 	DATA BYTE $fc,$0c,$8e,$ef,$47,$fd,$dc,$af
D5EC  FC                08840 	DB $FC
D5ED  0C                08841 	DB $0C
D5EE  8E                08842 	DB $8E
D5EF  EF                08843 	DB $EF
D5F0  47                08844 	DB $47
D5F1  FD                08845 	DB $FD
D5F2  DC                08846 	DB $DC
D5F3  AF                08847 	DB $AF
D5F4                    08848 	; 	DATA BYTE $fd,$ac,$16,$01,$fa,$0b,$27,$eb
D5F4  FD                08849 	DB $FD
D5F5  AC                08850 	DB $AC
D5F6  16                08851 	DB $16
D5F7  01                08852 	DB $01
D5F8  FA                08853 	DB $FA
D5F9  0B                08854 	DB $0B
D5FA  27                08855 	DB $27
D5FB  EB                08856 	DB $EB
D5FC                    08857 	; 	DATA BYTE $af,$f8,$8d,$70,$b1,$db,$41,$f8
D5FC  AF                08858 	DB $AF
D5FD  F8                08859 	DB $F8
D5FE  8D                08860 	DB $8D
D5FF  70                08861 	DB $70
D600  B1                08862 	DB $B1
D601  DB                08863 	DB $DB
D602  41                08864 	DB $41
D603  F8                08865 	DB $F8
D604                    08866 	; 	DATA BYTE $00,$f1,$de,$85,$7d,$70,$87,$5e
D604  00                08867 	DB $00
D605  F1                08868 	DB $F1
D606  DE                08869 	DB $DE
D607  85                08870 	DB $85
D608  7D                08871 	DB $7D
D609  70                08872 	DB $70
D60A  87                08873 	DB $87
D60B  5E                08874 	DB $5E
D60C                    08875 	; 	DATA BYTE $41,$36,$ee,$06,$f9,$05,$fb,$05
D60C  41                08876 	DB $41
D60D  36                08877 	DB $36
D60E  EE                08878 	DB $EE
D60F  06                08879 	DB $06
D610  F9                08880 	DB $F9
D611  05                08881 	DB $05
D612  FB                08882 	DB $FB
D613  05                08883 	DB $05
D614                    08884 	; 	DATA BYTE $d1,$f4,$bd,$bf,$6c,$f1,$0c,$ea
D614  D1                08885 	DB $D1
D615  F4                08886 	DB $F4
D616  BD                08887 	DB $BD
D617  BF                08888 	DB $BF
D618  6C                08889 	DB $6C
D619  F1                08890 	DB $F1
D61A  0C                08891 	DB $0C
D61B  EA                08892 	DB $EA
D61C                    08893 	; 	DATA BYTE $39,$15,$d9,$c4,$e4,$03,$f4,$6f
D61C  39                08894 	DB $39
D61D  15                08895 	DB $15
D61E  D9                08896 	DB $D9
D61F  C4                08897 	DB $C4
D620  E4                08898 	DB $E4
D621  03                08899 	DB $03
D622  F4                08900 	DB $F4
D623  6F                08901 	DB $6F
D624                    08902 	; 	DATA BYTE $fe,$f7,$00,$85,$fc,$f0,$85,$ec
D624  FE                08903 	DB $FE
D625  F7                08904 	DB $F7
D626  00                08905 	DB $00
D627  85                08906 	DB $85
D628  FC                08907 	DB $FC
D629  F0                08908 	DB $F0
D62A  85                08909 	DB $85
D62B  EC                08910 	DB $EC
D62C                    08911 	; 	DATA BYTE $fd,$55,$b7,$5f,$67,$7f,$e0,$e3
D62C  FD                08912 	DB $FD
D62D  55                08913 	DB $55
D62E  B7                08914 	DB $B7
D62F  5F                08915 	DB $5F
D630  67                08916 	DB $67
D631  7F                08917 	DB $7F
D632  E0                08918 	DB $E0
D633  E3                08919 	DB $E3
D634                    08920 	; 	DATA BYTE $f8,$79,$bf,$db,$74,$95,$81,$3f
D634  F8                08921 	DB $F8
D635  79                08922 	DB $79
D636  BF                08923 	DB $BF
D637  DB                08924 	DB $DB
D638  74                08925 	DB $74
D639  95                08926 	DB $95
D63A  81                08927 	DB $81
D63B  3F                08928 	DB $3F
D63C                    08929 	; 	DATA BYTE $1f,$87,$86,$ac,$71,$f4,$da,$0e
D63C  1F                08930 	DB $1F
D63D  87                08931 	DB $87
D63E  86                08932 	DB $86
D63F  AC                08933 	DB $AC
D640  71                08934 	DB $71
D641  F4                08935 	DB $F4
D642  DA                08936 	DB $DA
D643  0E                08937 	DB $0E
D644                    08938 	; 	DATA BYTE $01,$df,$cb,$00,$42,$d9,$9f,$7e
D644  01                08939 	DB $01
D645  DF                08940 	DB $DF
D646  CB                08941 	DB $CB
D647  00                08942 	DB $00
D648  42                08943 	DB $42
D649  D9                08944 	DB $D9
D64A  9F                08945 	DB $9F
D64B  7E                08946 	DB $7E
D64C                    08947 	; 	DATA BYTE $17,$60,$74,$84,$a6,$65,$00,$c4
D64C  17                08948 	DB $17
D64D  60                08949 	DB $60
D64E  74                08950 	DB $74
D64F  84                08951 	DB $84
D650  A6                08952 	DB $A6
D651  65                08953 	DB $65
D652  00                08954 	DB $00
D653  C4                08955 	DB $C4
D654                    08956 	; 	DATA BYTE $2c,$df,$00,$43,$e9,$d9,$d8,$99
D654  2C                08957 	DB $2C
D655  DF                08958 	DB $DF
D656  00                08959 	DB $00
D657  43                08960 	DB $43
D658  E9                08961 	DB $E9
D659  D9                08962 	DB $D9
D65A  D8                08963 	DB $D8
D65B  99                08964 	DB $99
D65C                    08965 	; 	DATA BYTE $7d,$a8,$8f,$d1,$41,$f9,$84,$75
D65C  7D                08966 	DB $7D
D65D  A8                08967 	DB $A8
D65E  8F                08968 	DB $8F
D65F  D1                08969 	DB $D1
D660  41                08970 	DB $41
D661  F9                08971 	DB $F9
D662  84                08972 	DB $84
D663  75                08973 	DB $75
D664                    08974 	; 	DATA BYTE $fb,$07,$53,$a3,$fb,$c2,$fa,$06
D664  FB                08975 	DB $FB
D665  07                08976 	DB $07
D666  53                08977 	DB $53
D667  A3                08978 	DB $A3
D668  FB                08979 	DB $FB
D669  C2                08980 	DB $C2
D66A  FA                08981 	DB $FA
D66B  06                08982 	DB $06
D66C                    08983 	; 	DATA BYTE $00,$d7,$4b,$97,$c2,$fc,$d0,$a9
D66C  00                08984 	DB $00
D66D  D7                08985 	DB $D7
D66E  4B                08986 	DB $4B
D66F  97                08987 	DB $97
D670  C2                08988 	DB $C2
D671  FC                08989 	DB $FC
D672  D0                08990 	DB $D0
D673  A9                08991 	DB $A9
D674                    08992 	; 	DATA BYTE $70,$85,$d5,$a9,$00,$03,$0e,$a7
D674  70                08993 	DB $70
D675  85                08994 	DB $85
D676  D5                08995 	DB $D5
D677  A9                08996 	DB $A9
D678  00                08997 	DB $00
D679  03                08998 	DB $03
D67A  0E                08999 	DB $0E
D67B  A7                09000 	DB $A7
D67C                    09001 	; 	DATA BYTE $c7,$84,$aa,$85,$ec,$c3,$95,$b1
D67C  C7                09002 	DB $C7
D67D  84                09003 	DB $84
D67E  AA                09004 	DB $AA
D67F  85                09005 	DB $85
D680  EC                09006 	DB $EC
D681  C3                09007 	DB $C3
D682  95                09008 	DB $95
D683  B1                09009 	DB $B1
D684                    09010 	; 	DATA BYTE $b9,$76,$06,$c9,$fb,$b8,$f5,$1f
D684  B9                09011 	DB $B9
D685  76                09012 	DB $76
D686  06                09013 	DB $06
D687  C9                09014 	DB $C9
D688  FB                09015 	DB $FB
D689  B8                09016 	DB $B8
D68A  F5                09017 	DB $F5
D68B  1F                09018 	DB $1F
D68C                    09019 	; 	DATA BYTE $c7,$82,$f4,$3a,$f4,$0c,$a5,$00
D68C  C7                09020 	DB $C7
D68D  82                09021 	DB $82
D68E  F4                09022 	DB $F4
D68F  3A                09023 	DB $3A
D690  F4                09024 	DB $F4
D691  0C                09025 	DB $0C
D692  A5                09026 	DB $A5
D693  00                09027 	DB $00
D694                    09028 	; 	DATA BYTE $c0,$f8,$f1,$88,$5e,$51,$2d,$91
D694  C0                09029 	DB $C0
D695  F8                09030 	DB $F8
D696  F1                09031 	DB $F1
D697  88                09032 	DB $88
D698  5E                09033 	DB $5E
D699  51                09034 	DB $51
D69A  2D                09035 	DB $2D
D69B  91                09036 	DB $91
D69C                    09037 	; 	DATA BYTE $21,$b7,$3e,$76,$51,$06,$fe,$13
D69C  21                09038 	DB $21
D69D  B7                09039 	DB $B7
D69E  3E                09040 	DB $3E
D69F  76                09041 	DB $76
D6A0  51                09042 	DB $51
D6A1  06                09043 	DB $06
D6A2  FE                09044 	DB $FE
D6A3  13                09045 	DB $13
D6A4                    09046 	; 	DATA BYTE $fd,$e1,$c9,$86,$dd,$3d,$c7,$b6
D6A4  FD                09047 	DB $FD
D6A5  E1                09048 	DB $E1
D6A6  C9                09049 	DB $C9
D6A7  86                09050 	DB $86
D6A8  DD                09051 	DB $DD
D6A9  3D                09052 	DB $3D
D6AA  C7                09053 	DB $C7
D6AB  B6                09054 	DB $B6
D6AC                    09055 	; 	DATA BYTE $99,$c5,$eb,$07,$ff,$40,$00,$ef
D6AC  99                09056 	DB $99
D6AD  C5                09057 	DB $C5
D6AE  EB                09058 	DB $EB
D6AF  07                09059 	DB $07
D6B0  FF                09060 	DB $FF
D6B1  40                09061 	DB $40
D6B2  00                09062 	DB $00
D6B3  EF                09063 	DB $EF
D6B4                    09064 	; 	DATA BYTE $a9,$d3,$00,$ba,$09,$00,$07,$ff
D6B4  A9                09065 	DB $A9
D6B5  D3                09066 	DB $D3
D6B6  00                09067 	DB $00
D6B7  BA                09068 	DB $BA
D6B8  09                09069 	DB $09
D6B9  00                09070 	DB $00
D6BA  07                09071 	DB $07
D6BB  FF                09072 	DB $FF
D6BC                    09073 	; 	DATA BYTE $ff,$ff,$ff,$c0
D6BC  FF                09074 	DB $FF
D6BD  FF                09075 	DB $FF
D6BE  FF                09076 	DB $FF
D6BF  C0                09077 	DB $C0
D6C0  FFFFFFFFFFFFFFFF  09078 	TIMES $FFBF-$ DB $FF
FFBF  F9                09079 	DB $F9
FFC0  FFFFFFFFFFFFFFFF  09080 	TIMES $40 DB $FF
10000                    09081 	;
10000                    09082 	; CVBasic epilogue (BASIC compiler for Colecovision)
10000                    09083 	;
10000                    09084 	; by Oscar Toledo G.
10000                    09085 	; https://nanochess.org/
10000                    09086 	;
10000                    09087 	; Creation date: Feb/27/2024.
10000                    09088 	; Revision date: Feb/29/2024. Added joystick, keypad, frame, random, and
10000                    09089 	;                             read_pointer variables.
10000                    09090 	; Revision date: Mar/04/2024. Added music player.
10000                    09091 	; Revision date: Mar/05/2024. Added support for Sega SG1000.
10000                    09092 	; Revision date: Mar/12/2024. Added support for MSX.
10000                    09093 	; Revision date: Mar/13/2024. Added Pletter decompressor.
10000                    09094 	; Revision date: Mar/19/2024. Added support for sprite flicker.
10000                    09095 	; Revision date: Apr/11/2024. Added support for Super Game Module.
10000                    09096 	; Revision date: Apr/13/2024. Updates LFSR in interruption handler.
10000                    09097 	; Revision date: Apr/26/2024. All code moved to cvbasic_prologue.asm so it
10000                    09098 	;                             can remain accessible in bank 0 (bank switching).
10000                    09099 	;
10000                    09100 
10000                    09101 	ORG BASE_RAM
7000                    09102 
7000                    09103 SPRITES:
7000                    09104 	RB 128
7080                    09105 SPRITE_DATA:
7080                    09106 	RB 4
7084                    09107 FRAME:
7084                    09108 	RB 2
7086                    09109 READ_POINTER:
7086                    09110 	RB 2
7088                    09111 CURSOR:
7088                    09112 	RB 2
708A                    09113 LFSR:
708A                    09114 	RB 2
708C                    09115 MODE:
708C                    09116 	RB 1
708D                    09117 FLICKER:
708D                    09118 	RB 1
708E                    09119 JOY1_DATA:
708E                    09120 	RB 1
708F                    09121 JOY2_DATA:
708F                    09122 	RB 1
7090                    09123 KEY1_DATA:
7090                    09124 	RB 1
7091                    09125 KEY2_DATA:
7091                    09126 	RB 1
7092                    09127 NTSC:
7092                    09128 	RB 1
7093                    09129 
7093                    09130     IF CVBASIC_MUSIC_PLAYER
7093                    09131 MUSIC_TICK:             RB 1
7094                    09132 MUSIC_MODE:             RB 1
7095                    09133 
7095                    09134     IF CVBASIC_BANK_SWITCHING
7095                    09135 MUSIC_BANK:             RB 1
7096                    09136     ENDIF
7096                    09137 MUSIC_START:		RB 2
7098                    09138 MUSIC_POINTER:		RB 2
709A                    09139 MUSIC_PLAYING:		RB 1
709B                    09140 MUSIC_TIMING:		RB 1
709C                    09141 MUSIC_NOTE_COUNTER:	RB 1
709D                    09142 MUSIC_INSTRUMENT_1:	RB 1
709E                    09143 MUSIC_COUNTER_1:	RB 1
709F                    09144 MUSIC_NOTE_1:		RB 1
70A0                    09145 MUSIC_INSTRUMENT_2:	RB 1
70A1                    09146 MUSIC_COUNTER_2:	RB 1
70A2                    09147 MUSIC_NOTE_2:		RB 1
70A3                    09148 MUSIC_INSTRUMENT_3:	RB 1
70A4                    09149 MUSIC_COUNTER_3:	RB 1
70A5                    09150 MUSIC_NOTE_3:		RB 1
70A6                    09151 MUSIC_COUNTER_4:	RB 1
70A7                    09152 MUSIC_DRUM:		RB 1
70A8                    09153 
70A8                    09154 AUDIO_FREQ1:		RB 2
70AA                    09155 AUDIO_FREQ2:		RB 2
70AC                    09156 AUDIO_FREQ3:		RB 2
70AE                    09157 AUDIO_NOISE:		RB 1
70AF                    09158 AUDIO_MIX:		RB 1
70B0                    09159 AUDIO_VOL1:		RB 1
70B1                    09160 AUDIO_VOL2:		RB 1
70B2                    09161 AUDIO_VOL3:		RB 1
70B3                    09162 
70B3                    09163 AUDIO_CONTROL:		RB 1
70B4                    09164 AUDIO_VOL4HW:		RB 1
70B5                    09165     ENDIF
70B5                    09166 
70B5                    09167     IF SGM
70B5                    09168 	ORG $2000	; Start for variables.
70B5                    09169     ENDIF

00000 ERRORS FOUND
00000 WARNINGS FOUND

49152 PROGRAM BYTES

LABEL                VALUE/ADDRESS

AUDIO_CONTROL        70b3
AUDIO_FREQ1          70a8
AUDIO_FREQ2          70aa
AUDIO_FREQ3          70ac
AUDIO_MIX            70af
AUDIO_NOISE          70ae
AUDIO_VOL1           70b0
AUDIO_VOL2           70b1
AUDIO_VOL3           70b2
AUDIO_VOL4HW         70b4
AY2SN                8883
AY3_FREQ             82b3
AY3_REG              82ab
BASE_RAM             7000
CLS                  80f1
COLECO               0001
CPYBLK               80a3
CPYBLK.1             80ae
CURSOR               7088
CV1                  8a1c
CV2                  8a1f
CVBASIC_BANK_SWITCHING 0001
CVBASIC_COMPRESSION  0001
CVBASIC_MUSIC_PLAYER 0001
CVB_IMAGE_BITMAP     c000
CVB_IMAGE_COLOR      ce6c
CVB_TUNE_2           c000
DEFINE_CHAR          819a
DEFINE_CHAR.1        81ba
DEFINE_CHAR_UNPACK   8899
DEFINE_COLOR         81c0
DEFINE_COLOR_UNPACK  88ac
DEFINE_SPRITE        817b
DISSCR               808b
ENABLE_DRUM          87fd
ENASCR               8097
FILVRM               8051
FILVRM.1             8055
FLICKER              708d
FRAME                7084
JOY1                 00fc
JOY1_DATA            708e
JOY2                 00ff
JOY2_DATA            708f
JOYSEL               00c0
KEY1_DATA            7090
KEY2_DATA            7091
KEYPAD_TABLE         80e1
KEYSEL               0080
LDIRVM               8061
LDIRVM.1             806d
LDIRVM3              8077
LDIRVM3.1            807d
LFSR                 708a
MODE                 708c
MODE_0               82f5
MODE_1               8354
MODE_1.1             8383
MODE_1.2             8388
MODE_2               839b
MSX                  0000
MUSIC_BANK           7095
MUSIC_BASS           8679
MUSIC_CLARINET       869c
MUSIC_CLARINET.1     86bb
MUSIC_CLARINET.2     86b2
MUSIC_COUNTER_1      709e
MUSIC_COUNTER_2      70a1
MUSIC_COUNTER_3      70a4
MUSIC_COUNTER_4      70a6
MUSIC_DRUM           70a7
MUSIC_FLUTE          86eb
MUSIC_FLUTE.1        8702
MUSIC_GENERATE       84f6
MUSIC_GENERATE.0     854c
MUSIC_GENERATE.1     856a
MUSIC_GENERATE.10    85f6
MUSIC_GENERATE.11    8614
MUSIC_GENERATE.14    85a9
MUSIC_GENERATE.15    8518
MUSIC_GENERATE.16    8533
MUSIC_GENERATE.17    8538
MUSIC_GENERATE.19    8542
MUSIC_GENERATE.2     8580
MUSIC_GENERATE.3     8596
MUSIC_GENERATE.4     862d
MUSIC_GENERATE.5     8600
MUSIC_GENERATE.6     85ac
MUSIC_GENERATE.7     85bf
MUSIC_GENERATE.8     85d2
MUSIC_GENERATE.9     85e5
MUSIC_HARDWARE       8732
MUSIC_HARDWARE.1     877a
MUSIC_HARDWARE.2     87a2
MUSIC_HARDWARE.3     87d1
MUSIC_HARDWARE.4     87f7
MUSIC_HARDWARE.5     87eb
MUSIC_HARDWARE.6     87d3
MUSIC_HARDWARE.7     8754
MUSIC_INIT           84b1
MUSIC_INSTRUMENT_1   709d
MUSIC_INSTRUMENT_2   70a0
MUSIC_INSTRUMENT_3   70a3
MUSIC_MODE           7094
MUSIC_NOTE2FREQ      8660
MUSIC_NOTES_TABLE    8803
MUSIC_NOTE_1         709f
MUSIC_NOTE_2         70a2
MUSIC_NOTE_3         70a5
MUSIC_NOTE_COUNTER   709c
MUSIC_PIANO          867a
MUSIC_PIANO.1        8684
MUSIC_PLAY           84d7
MUSIC_PLAYING        709a
MUSIC_POINTER        7098
MUSIC_SILENCE        8893
MUSIC_START          7096
MUSIC_TICK           7093
MUSIC_TIMING         709b
NMI_HANDLER          83d3
NMI_HANDLER.0        83e2
NMI_HANDLER.1        83e4
NMI_HANDLER.2        849d
NMI_HANDLER.3        84a4
NMI_HANDLER.4        8401
NMI_HANDLER.5        8431
NMI_HANDLER.6        8417
NMI_OFF              80c9
NMI_ON               80d1
NTSC                 7092
PRINT_DIGIT          814b
PRINT_DIGIT.2        814e
PRINT_DIGIT.3        8164
PRINT_DIGIT.4        8162
PRINT_DIGIT.5        8166
PRINT_NUMBER         8124
PRINT_NUMBER1        8141
PRINT_NUMBER2        813b
PRINT_NUMBER3        8135
PRINT_NUMBER4        812f
PRINT_NUMBER5        8129
PRINT_STRING         8105
PSG                  00ff
RANDOM               8262
RANDOM.0             826c
RDVRM                8047
READ_POINTER         7086
SETRD                8036
SETWRT               802d
SG1000               0000
SGM                  0000
SN76489_CONTROL      82a4
SN76489_FREQ         828c
SN76489_VOL          829d
SPRITES              7000
SPRITE_DATA          7080
STACK                7400
START                8992
UNPACK               88c8
UNPACK.GETBIT        897c
UNPACK.GETBITEXX     8980
UNPACK.GETLEN        8904
UNPACK.LENOK         8924
UNPACK.LITERAL       88eb
UNPACK.LOOP          88fb
UNPACK.LOOP2         8963
UNPACK.LUS           890a
UNPACK.MODE2         8948
UNPACK.MODE3         8942
UNPACK.MODE4         893c
UNPACK.MODE5         8936
UNPACK.MODE6         8930
UNPACK.MODES         8986
UNPACK.OFFSOK        8958
UNPACK3              88b6
UNPACK3.1            88bc
UPDATE_SPRITE        81db
VDP                  00be
VDP_GENERIC_MODE     82c5
VDP_GENERIC_SPRITES  832a
WRTVDP               8024
WRTVRM               803f
_ABS16               824b
_DIV16               8213
_DIV16.1             821a
_DIV16.2             8226
_MOD16               8232
_MOD16.1             8239
_MOD16.2             8245
_MUL16               81fc
_MUL16.1             8203
_MUL16.2             820a
_SGN16               8256
